(dp1
S'output'
p2
S'<class \'psycopg2.ProgrammingError\'> relation "user_login" does not exist\nLINE 1: ...set_password_key, user_login.registration_id FROM user_login...\n                                                             ^\n'
p3
sS'layer'
p4
S'/Users/cyan/Package/GitHub/funback/web2py/applications/funback/controllers/account.py'
p5
sS'code'
p6
S'##########################\n### Account Controller ###\n##########################\n\n## Deal with all the following functionalities relating to accounts\n## 1. account creation/registration\n## 2. email confirmation\n## 3. rest password\n## 4. change password\n\n#===============================================================================\n# Use the Auth functions provided by Web2py\n# use @auth.requires_login()\n# @auth.requires_membership(\'group name\')\n# @auth.requires_permission(\'read\',\'table name\',record_id)\n# to decorate functions that need access control\n#===============================================================================\n\n\ndef register():\n    """\n    exposes:\n    http://..../[app]/account/register\n    """\n    \n    form = auth.register()\n    if form.process().accepted:\n        session.email = form.vars.email\n        session.password = form.vars.password\n        redirect(URL(\'registered\'))\n    \n    return dict(form=form)\n\ndef verify_email():\n    """\n    exposes:\n    http://..../[app]/account/verify_email\n    """\n    return dict(form=auth.verify_email())\n\ndef login():\n    """\n    exposes:\n    http://..../[app]/account/login\n    """\n    return dict(form=auth.login())\n\ndef logout():\n    """\n    exposes:\n    http://..../[app]/account/logout\n    """\n    return dict(form=auth.logout())\n\ndef retrieve_password():\n    """\n    exposes:\n    http://..../[app]/account/retrieve_password\n    """\n    return dict(form=auth.retrieve_password())\n\ndef change_password():\n    """\n    exposes:\n    http://..../[app]/account/change_password\n    """\n    return dict(form=auth.change_password())\n\ndef profile():\n    """\n    exposes:\n    http://..../[app]/account/profile\n    """\n    return dict(form=auth.profile())\n\n\n#===============================================================================\n# def register():\n#    form = SQLFORM.factory(\n#        Field(\'email\', requires=[IS_NOT_EMPTY(), \n#                                IS_EMAIL(forced=\'^.*\\.edu(|\\..*)$\', error_message=\'email must be .edu address\')]),\n#        Field(\'password\', \'password\', requires=[IS_NOT_EMPTY(), \n#                                            IS_STRONG(min=7, special=0, upper=0, number=0, error_message=\'minimum 7 characters\'), \n#                                            CRYPT()]),\n#        Field(\'re_password\', \'password\', requires=[IS_EXPR(\'value==%s\' % repr(request.vars.get(\'password\', None)), error_message=\'Passwords do not match\'), \n#                                                CRYPT()]),\n#        submit_button=\'Sign up\')\n#    if form.process().accepted:\n#        session.email = form.vars.email\n#        session.pwd = form.vars.pwd\n#        redirect(URL(\'registered\'))\n#    return dict(form=form)\n#===============================================================================\n\ndef registered():\n    if not request.function==\'register\' and not session.email:\n        redirect(URL(\'register\'))\n    return dict()\nresponse._vars=response._caller(register)\n'
p7
sS'snapshot'
p8
(dp9
S'exception'
p10
(dp11
S'__module__'
p12
S"'psycopg2'"
p13
sS'__getslice__'
p14
S"<method-wrapper '__getslice__' of ProgrammingError object>"
p15
sS'__str__'
p16
S"<method-wrapper '__str__' of ProgrammingError object>"
p17
sS'__reduce__'
p18
S'<built-in method __reduce__ of ProgrammingError object>'
p19
sS'__dict__'
p20
S'{\'cursor\': <cursor object at 0x1026cd810; closed: 0>, \'pgcode\': \'42P01\', \'pgerror\': \'ERROR:  relation "user_login" does not exist\\nLIN...                                               ^\\n\'}'
p21
sS'__sizeof__'
p22
S'<built-in method __sizeof__ of ProgrammingError object>'
p23
sS'__weakref__'
p24
S'None'
p25
sS'__init__'
p26
S"<method-wrapper '__init__' of ProgrammingError object>"
p27
sS'__setattr__'
p28
S"<method-wrapper '__setattr__' of ProgrammingError object>"
p29
sS'__reduce_ex__'
p30
S'<built-in method __reduce_ex__ of ProgrammingError object>'
p31
sS'__new__'
p32
S'<built-in method __new__ of type object>'
p33
sS'__format__'
p34
S'<built-in method __format__ of ProgrammingError object>'
p35
sS'__class__'
p36
S"<class 'psycopg2.ProgrammingError'>"
p37
sS'pgerror'
p38
S'\'ERROR:  relation "user_login" does not exist\\nLIN...                                               ^\\n\''
p39
sS'__doc__'
p40
S"'Error related to database programming (SQL error, table not found etc).'"
p41
sS'__getitem__'
p42
S"<method-wrapper '__getitem__' of ProgrammingError object>"
p43
sS'__setstate__'
p44
S'<built-in method __setstate__ of ProgrammingError object>'
p45
sS'__getattribute__'
p46
S"<method-wrapper '__getattribute__' of ProgrammingError object>"
p47
sS'args'
p48
S'(\'relation "user_login" does not exist\\nLINE 1: ......                                               ^\\n\',)'
p49
sS'__subclasshook__'
p50
S'<built-in method __subclasshook__ of type object>'
p51
sS'pgcode'
p52
S"'42P01'"
p53
sS'__unicode__'
p54
S'<built-in method __unicode__ of ProgrammingError object>'
p55
sS'cursor'
p56
S'<cursor object at 0x1026cd810; closed: 0>'
p57
sS'__delattr__'
p58
S"<method-wrapper '__delattr__' of ProgrammingError object>"
p59
sS'__repr__'
p60
S"<method-wrapper '__repr__' of ProgrammingError object>"
p61
sS'__hash__'
p62
S"<method-wrapper '__hash__' of ProgrammingError object>"
p63
ssS'evalue'
p64
S'relation "user_login" does not exist\nLINE 1: ...set_password_key, user_login.registration_id FROM user_login...\n                                                             ^\n'
p65
sS'request'
p66
ccopy_reg
_reconstructor
p67
(cgluon.html
BEAUTIFY
p68
c__builtin__
object
p69
NtRp70
(dp71
S'attributes'
p72
(dp73
sS'components'
p74
(lp75
g67
(cgluon.html
TABLE
p76
g69
NtRp77
(dp78
g72
(dp79
S'level'
p80
I5
ssS'parent'
p81
Nsg74
(lp82
g67
(cgluon.html
TR
p83
g69
NtRp84
(dp85
g72
(dp86
sg81
g77
sg74
(lp87
g67
(cgluon.html
TD
p88
g69
NtRp89
(dp90
g72
(dp91
S'_style'
p92
S'font-weight:bold;vertical-align:top'
p93
ssg81
g84
sg74
(lp94
S'ajax'
p95
asbag67
(g88
g69
NtRp96
(dp97
g72
(dp98
S'_valign'
p99
S'top'
p100
ssg81
g84
sg74
(lp101
S':'
asbag67
(g88
g69
NtRp102
(dp103
g72
(dp104
sg81
g84
sg74
(lp105
g67
(g68
g69
NtRp106
(dp107
g72
(dp108
g80
I5
ssg81
g102
sg74
(lp109
S'False'
p110
asbasbasbag67
(g83
g69
NtRp111
(dp112
g72
(dp113
sg81
g77
sg74
(lp114
g67
(g88
g69
NtRp115
(dp116
g72
(dp117
g92
g93
ssg81
g111
sg74
(lp118
S'application'
p119
asbag67
(g88
g69
NtRp120
(dp121
g72
(dp122
g99
g100
ssg81
g111
sg74
(lp123
S':'
asbag67
(g88
g69
NtRp124
(dp125
g72
(dp126
sg81
g111
sg74
(lp127
g67
(g68
g69
NtRp128
(dp129
g72
(dp130
g80
I5
ssg81
g124
sg74
(lp131
S'funback'
p132
asbasbasbag67
(g83
g69
NtRp133
(dp134
g72
(dp135
sg81
g77
sg74
(lp136
g67
(g88
g69
NtRp137
(dp138
g72
(dp139
g92
g93
ssg81
g133
sg74
(lp140
g48
asbag67
(g88
g69
NtRp141
(dp142
g72
(dp143
g99
g100
ssg81
g133
sg74
(lp144
S':'
asbag67
(g88
g69
NtRp145
(dp146
g72
(dp147
sg81
g133
sg74
(lp148
g67
(g68
g69
NtRp149
(dp150
g72
(dp151
g80
I5
ssg81
g145
sg74
(lp152
g67
(g76
g69
NtRp153
(dp154
g72
(dp155
g80
I4
ssg81
Nsg74
(lp156
sbasbasbasbag67
(g83
g69
NtRp157
(dp158
g72
(dp159
sg81
g77
sg74
(lp160
g67
(g88
g69
NtRp161
(dp162
g72
(dp163
g92
g93
ssg81
g157
sg74
(lp164
S'body'
p165
asbag67
(g88
g69
NtRp166
(dp167
g72
(dp168
g99
g100
ssg81
g157
sg74
(lp169
S':'
asbag67
(g88
g69
NtRp170
(dp171
g72
(dp172
sg81
g157
sg74
(lp173
g67
(g68
g69
NtRp174
(dp175
g72
(dp176
g80
I5
ssg81
g170
sg74
(lp177
S"<open file '<fdopen>', mode 'w+b' at 0x101d1a1e0>"
p178
asbasbasbag67
(g83
g69
NtRp179
(dp180
g72
(dp181
sg81
g77
sg74
(lp182
g67
(g88
g69
NtRp183
(dp184
g72
(dp185
g92
g93
ssg81
g179
sg74
(lp186
S'client'
p187
asbag67
(g88
g69
NtRp188
(dp189
g72
(dp190
g99
g100
ssg81
g179
sg74
(lp191
S':'
asbag67
(g88
g69
NtRp192
(dp193
g72
(dp194
sg81
g179
sg74
(lp195
g67
(g68
g69
NtRp196
(dp197
g72
(dp198
g80
I5
ssg81
g192
sg74
(lp199
S'127.0.0.1'
p200
asbasbasbag67
(g83
g69
NtRp201
(dp202
g72
(dp203
sg81
g77
sg74
(lp204
g67
(g88
g69
NtRp205
(dp206
g72
(dp207
g92
g93
ssg81
g201
sg74
(lp208
S'controller'
p209
asbag67
(g88
g69
NtRp210
(dp211
g72
(dp212
g99
g100
ssg81
g201
sg74
(lp213
S':'
asbag67
(g88
g69
NtRp214
(dp215
g72
(dp216
sg81
g201
sg74
(lp217
g67
(g68
g69
NtRp218
(dp219
g72
(dp220
g80
I5
ssg81
g214
sg74
(lp221
S'account'
p222
asbasbasbag67
(g83
g69
NtRp223
(dp224
g72
(dp225
sg81
g77
sg74
(lp226
g67
(g88
g69
NtRp227
(dp228
g72
(dp229
g92
g93
ssg81
g223
sg74
(lp230
S'cookies'
p231
asbag67
(g88
g69
NtRp232
(dp233
g72
(dp234
g99
g100
ssg81
g223
sg74
(lp235
S':'
asbag67
(g88
g69
NtRp236
(dp237
g72
(dp238
sg81
g223
sg74
(lp239
g67
(g68
g69
NtRp240
(dp241
g72
(dp242
g80
I5
ssg81
g236
sg74
(lp243
g67
(g76
g69
NtRp244
(dp245
g72
(dp246
g80
I4
ssg81
Nsg74
(lp247
g67
(g83
g69
NtRp248
(dp249
g72
(dp250
sg81
g244
sg74
(lp251
g67
(g88
g69
NtRp252
(dp253
g72
(dp254
g92
g93
ssg81
g248
sg74
(lp255
S'session_id_admin'
p256
asbag67
(g88
g69
NtRp257
(dp258
g72
(dp259
g99
g100
ssg81
g248
sg74
(lp260
S':'
asbag67
(g88
g69
NtRp261
(dp262
g72
(dp263
sg81
g248
sg74
(lp264
g67
(g68
g69
NtRp265
(dp266
g72
(dp267
g80
I4
ssg81
g261
sg74
(lp268
g67
(g76
g69
NtRp269
(dp270
g72
(dp271
g80
I3
ssg81
Nsg74
(lp272
g67
(g83
g69
NtRp273
(dp274
g72
(dp275
sg81
g269
sg74
(lp276
g67
(g88
g69
NtRp277
(dp278
g72
(dp279
g92
g93
ssg81
g273
sg74
(lp280
S'comment'
p281
asbag67
(g88
g69
NtRp282
(dp283
g72
(dp284
g99
g100
ssg81
g273
sg74
(lp285
S':'
asbag67
(g88
g69
NtRp286
(dp287
g72
(dp288
sg81
g273
sg74
(lp289
g67
(g68
g69
NtRp290
(dp291
g72
(dp292
g80
I3
ssg81
g286
sg74
(lp293
S''
asbasbasbag67
(g83
g69
NtRp294
(dp295
g72
(dp296
sg81
g269
sg74
(lp297
g67
(g88
g69
NtRp298
(dp299
g72
(dp300
g92
g93
ssg81
g294
sg74
(lp301
S'domain'
p302
asbag67
(g88
g69
NtRp303
(dp304
g72
(dp305
g99
g100
ssg81
g294
sg74
(lp306
S':'
asbag67
(g88
g69
NtRp307
(dp308
g72
(dp309
sg81
g294
sg74
(lp310
g67
(g68
g69
NtRp311
(dp312
g72
(dp313
g80
I3
ssg81
g307
sg74
(lp314
S''
asbasbasbag67
(g83
g69
NtRp315
(dp316
g72
(dp317
sg81
g269
sg74
(lp318
g67
(g88
g69
NtRp319
(dp320
g72
(dp321
g92
g93
ssg81
g315
sg74
(lp322
S'expires'
p323
asbag67
(g88
g69
NtRp324
(dp325
g72
(dp326
g99
g100
ssg81
g315
sg74
(lp327
S':'
asbag67
(g88
g69
NtRp328
(dp329
g72
(dp330
sg81
g315
sg74
(lp331
g67
(g68
g69
NtRp332
(dp333
g72
(dp334
g80
I3
ssg81
g328
sg74
(lp335
S''
asbasbasbag67
(g83
g69
NtRp336
(dp337
g72
(dp338
sg81
g269
sg74
(lp339
g67
(g88
g69
NtRp340
(dp341
g72
(dp342
g92
g93
ssg81
g336
sg74
(lp343
S'httponly'
p344
asbag67
(g88
g69
NtRp345
(dp346
g72
(dp347
g99
g100
ssg81
g336
sg74
(lp348
S':'
asbag67
(g88
g69
NtRp349
(dp350
g72
(dp351
sg81
g336
sg74
(lp352
g67
(g68
g69
NtRp353
(dp354
g72
(dp355
g80
I3
ssg81
g349
sg74
(lp356
S''
asbasbasbag67
(g83
g69
NtRp357
(dp358
g72
(dp359
sg81
g269
sg74
(lp360
g67
(g88
g69
NtRp361
(dp362
g72
(dp363
g92
g93
ssg81
g357
sg74
(lp364
S'max-age'
p365
asbag67
(g88
g69
NtRp366
(dp367
g72
(dp368
g99
g100
ssg81
g357
sg74
(lp369
S':'
asbag67
(g88
g69
NtRp370
(dp371
g72
(dp372
sg81
g357
sg74
(lp373
g67
(g68
g69
NtRp374
(dp375
g72
(dp376
g80
I3
ssg81
g370
sg74
(lp377
S''
asbasbasbag67
(g83
g69
NtRp378
(dp379
g72
(dp380
sg81
g269
sg74
(lp381
g67
(g88
g69
NtRp382
(dp383
g72
(dp384
g92
g93
ssg81
g378
sg74
(lp385
S'path'
p386
asbag67
(g88
g69
NtRp387
(dp388
g72
(dp389
g99
g100
ssg81
g378
sg74
(lp390
S':'
asbag67
(g88
g69
NtRp391
(dp392
g72
(dp393
sg81
g378
sg74
(lp394
g67
(g68
g69
NtRp395
(dp396
g72
(dp397
g80
I3
ssg81
g391
sg74
(lp398
S''
asbasbasbag67
(g83
g69
NtRp399
(dp400
g72
(dp401
sg81
g269
sg74
(lp402
g67
(g88
g69
NtRp403
(dp404
g72
(dp405
g92
g93
ssg81
g399
sg74
(lp406
S'secure'
p407
asbag67
(g88
g69
NtRp408
(dp409
g72
(dp410
g99
g100
ssg81
g399
sg74
(lp411
S':'
asbag67
(g88
g69
NtRp412
(dp413
g72
(dp414
sg81
g399
sg74
(lp415
g67
(g68
g69
NtRp416
(dp417
g72
(dp418
g80
I3
ssg81
g412
sg74
(lp419
S''
asbasbasbag67
(g83
g69
NtRp420
(dp421
g72
(dp422
sg81
g269
sg74
(lp423
g67
(g88
g69
NtRp424
(dp425
g72
(dp426
g92
g93
ssg81
g420
sg74
(lp427
S'version'
p428
asbag67
(g88
g69
NtRp429
(dp430
g72
(dp431
g99
g100
ssg81
g420
sg74
(lp432
S':'
asbag67
(g88
g69
NtRp433
(dp434
g72
(dp435
sg81
g420
sg74
(lp436
g67
(g68
g69
NtRp437
(dp438
g72
(dp439
g80
I3
ssg81
g433
sg74
(lp440
S''
asbasbasbasbasbasbasbag67
(g83
g69
NtRp441
(dp442
g72
(dp443
sg81
g244
sg74
(lp444
g67
(g88
g69
NtRp445
(dp446
g72
(dp447
g92
g93
ssg81
g441
sg74
(lp448
S'session_id_funback'
p449
asbag67
(g88
g69
NtRp450
(dp451
g72
(dp452
g99
g100
ssg81
g441
sg74
(lp453
S':'
asbag67
(g88
g69
NtRp454
(dp455
g72
(dp456
sg81
g441
sg74
(lp457
g67
(g68
g69
NtRp458
(dp459
g72
(dp460
g80
I4
ssg81
g454
sg74
(lp461
g67
(g76
g69
NtRp462
(dp463
g72
(dp464
g80
I3
ssg81
Nsg74
(lp465
g67
(g83
g69
NtRp466
(dp467
g72
(dp468
sg81
g462
sg74
(lp469
g67
(g88
g69
NtRp470
(dp471
g72
(dp472
g92
g93
ssg81
g466
sg74
(lp473
g281
asbag67
(g88
g69
NtRp474
(dp475
g72
(dp476
g99
g100
ssg81
g466
sg74
(lp477
S':'
asbag67
(g88
g69
NtRp478
(dp479
g72
(dp480
sg81
g466
sg74
(lp481
g67
(g68
g69
NtRp482
(dp483
g72
(dp484
g80
I3
ssg81
g478
sg74
(lp485
S''
asbasbasbag67
(g83
g69
NtRp486
(dp487
g72
(dp488
sg81
g462
sg74
(lp489
g67
(g88
g69
NtRp490
(dp491
g72
(dp492
g92
g93
ssg81
g486
sg74
(lp493
g302
asbag67
(g88
g69
NtRp494
(dp495
g72
(dp496
g99
g100
ssg81
g486
sg74
(lp497
S':'
asbag67
(g88
g69
NtRp498
(dp499
g72
(dp500
sg81
g486
sg74
(lp501
g67
(g68
g69
NtRp502
(dp503
g72
(dp504
g80
I3
ssg81
g498
sg74
(lp505
S''
asbasbasbag67
(g83
g69
NtRp506
(dp507
g72
(dp508
sg81
g462
sg74
(lp509
g67
(g88
g69
NtRp510
(dp511
g72
(dp512
g92
g93
ssg81
g506
sg74
(lp513
g323
asbag67
(g88
g69
NtRp514
(dp515
g72
(dp516
g99
g100
ssg81
g506
sg74
(lp517
S':'
asbag67
(g88
g69
NtRp518
(dp519
g72
(dp520
sg81
g506
sg74
(lp521
g67
(g68
g69
NtRp522
(dp523
g72
(dp524
g80
I3
ssg81
g518
sg74
(lp525
S''
asbasbasbag67
(g83
g69
NtRp526
(dp527
g72
(dp528
sg81
g462
sg74
(lp529
g67
(g88
g69
NtRp530
(dp531
g72
(dp532
g92
g93
ssg81
g526
sg74
(lp533
g344
asbag67
(g88
g69
NtRp534
(dp535
g72
(dp536
g99
g100
ssg81
g526
sg74
(lp537
S':'
asbag67
(g88
g69
NtRp538
(dp539
g72
(dp540
sg81
g526
sg74
(lp541
g67
(g68
g69
NtRp542
(dp543
g72
(dp544
g80
I3
ssg81
g538
sg74
(lp545
S''
asbasbasbag67
(g83
g69
NtRp546
(dp547
g72
(dp548
sg81
g462
sg74
(lp549
g67
(g88
g69
NtRp550
(dp551
g72
(dp552
g92
g93
ssg81
g546
sg74
(lp553
g365
asbag67
(g88
g69
NtRp554
(dp555
g72
(dp556
g99
g100
ssg81
g546
sg74
(lp557
S':'
asbag67
(g88
g69
NtRp558
(dp559
g72
(dp560
sg81
g546
sg74
(lp561
g67
(g68
g69
NtRp562
(dp563
g72
(dp564
g80
I3
ssg81
g558
sg74
(lp565
S''
asbasbasbag67
(g83
g69
NtRp566
(dp567
g72
(dp568
sg81
g462
sg74
(lp569
g67
(g88
g69
NtRp570
(dp571
g72
(dp572
g92
g93
ssg81
g566
sg74
(lp573
g386
asbag67
(g88
g69
NtRp574
(dp575
g72
(dp576
g99
g100
ssg81
g566
sg74
(lp577
S':'
asbag67
(g88
g69
NtRp578
(dp579
g72
(dp580
sg81
g566
sg74
(lp581
g67
(g68
g69
NtRp582
(dp583
g72
(dp584
g80
I3
ssg81
g578
sg74
(lp585
S''
asbasbasbag67
(g83
g69
NtRp586
(dp587
g72
(dp588
sg81
g462
sg74
(lp589
g67
(g88
g69
NtRp590
(dp591
g72
(dp592
g92
g93
ssg81
g586
sg74
(lp593
g407
asbag67
(g88
g69
NtRp594
(dp595
g72
(dp596
g99
g100
ssg81
g586
sg74
(lp597
S':'
asbag67
(g88
g69
NtRp598
(dp599
g72
(dp600
sg81
g586
sg74
(lp601
g67
(g68
g69
NtRp602
(dp603
g72
(dp604
g80
I3
ssg81
g598
sg74
(lp605
S''
asbasbasbag67
(g83
g69
NtRp606
(dp607
g72
(dp608
sg81
g462
sg74
(lp609
g67
(g88
g69
NtRp610
(dp611
g72
(dp612
g92
g93
ssg81
g606
sg74
(lp613
g428
asbag67
(g88
g69
NtRp614
(dp615
g72
(dp616
g99
g100
ssg81
g606
sg74
(lp617
S':'
asbag67
(g88
g69
NtRp618
(dp619
g72
(dp620
sg81
g606
sg74
(lp621
g67
(g68
g69
NtRp622
(dp623
g72
(dp624
g80
I3
ssg81
g618
sg74
(lp625
S''
asbasbasbasbasbasbasbag67
(g83
g69
NtRp626
(dp627
g72
(dp628
sg81
g244
sg74
(lp629
g67
(g88
g69
NtRp630
(dp631
g72
(dp632
g92
g93
ssg81
g626
sg74
(lp633
S'session_id_welcome'
p634
asbag67
(g88
g69
NtRp635
(dp636
g72
(dp637
g99
g100
ssg81
g626
sg74
(lp638
S':'
asbag67
(g88
g69
NtRp639
(dp640
g72
(dp641
sg81
g626
sg74
(lp642
g67
(g68
g69
NtRp643
(dp644
g72
(dp645
g80
I4
ssg81
g639
sg74
(lp646
g67
(g76
g69
NtRp647
(dp648
g72
(dp649
g80
I3
ssg81
Nsg74
(lp650
g67
(g83
g69
NtRp651
(dp652
g72
(dp653
sg81
g647
sg74
(lp654
g67
(g88
g69
NtRp655
(dp656
g72
(dp657
g92
g93
ssg81
g651
sg74
(lp658
g281
asbag67
(g88
g69
NtRp659
(dp660
g72
(dp661
g99
g100
ssg81
g651
sg74
(lp662
S':'
asbag67
(g88
g69
NtRp663
(dp664
g72
(dp665
sg81
g651
sg74
(lp666
g67
(g68
g69
NtRp667
(dp668
g72
(dp669
g80
I3
ssg81
g663
sg74
(lp670
S''
asbasbasbag67
(g83
g69
NtRp671
(dp672
g72
(dp673
sg81
g647
sg74
(lp674
g67
(g88
g69
NtRp675
(dp676
g72
(dp677
g92
g93
ssg81
g671
sg74
(lp678
g302
asbag67
(g88
g69
NtRp679
(dp680
g72
(dp681
g99
g100
ssg81
g671
sg74
(lp682
S':'
asbag67
(g88
g69
NtRp683
(dp684
g72
(dp685
sg81
g671
sg74
(lp686
g67
(g68
g69
NtRp687
(dp688
g72
(dp689
g80
I3
ssg81
g683
sg74
(lp690
S''
asbasbasbag67
(g83
g69
NtRp691
(dp692
g72
(dp693
sg81
g647
sg74
(lp694
g67
(g88
g69
NtRp695
(dp696
g72
(dp697
g92
g93
ssg81
g691
sg74
(lp698
g323
asbag67
(g88
g69
NtRp699
(dp700
g72
(dp701
g99
g100
ssg81
g691
sg74
(lp702
S':'
asbag67
(g88
g69
NtRp703
(dp704
g72
(dp705
sg81
g691
sg74
(lp706
g67
(g68
g69
NtRp707
(dp708
g72
(dp709
g80
I3
ssg81
g703
sg74
(lp710
S''
asbasbasbag67
(g83
g69
NtRp711
(dp712
g72
(dp713
sg81
g647
sg74
(lp714
g67
(g88
g69
NtRp715
(dp716
g72
(dp717
g92
g93
ssg81
g711
sg74
(lp718
g344
asbag67
(g88
g69
NtRp719
(dp720
g72
(dp721
g99
g100
ssg81
g711
sg74
(lp722
S':'
asbag67
(g88
g69
NtRp723
(dp724
g72
(dp725
sg81
g711
sg74
(lp726
g67
(g68
g69
NtRp727
(dp728
g72
(dp729
g80
I3
ssg81
g723
sg74
(lp730
S''
asbasbasbag67
(g83
g69
NtRp731
(dp732
g72
(dp733
sg81
g647
sg74
(lp734
g67
(g88
g69
NtRp735
(dp736
g72
(dp737
g92
g93
ssg81
g731
sg74
(lp738
g365
asbag67
(g88
g69
NtRp739
(dp740
g72
(dp741
g99
g100
ssg81
g731
sg74
(lp742
S':'
asbag67
(g88
g69
NtRp743
(dp744
g72
(dp745
sg81
g731
sg74
(lp746
g67
(g68
g69
NtRp747
(dp748
g72
(dp749
g80
I3
ssg81
g743
sg74
(lp750
S''
asbasbasbag67
(g83
g69
NtRp751
(dp752
g72
(dp753
sg81
g647
sg74
(lp754
g67
(g88
g69
NtRp755
(dp756
g72
(dp757
g92
g93
ssg81
g751
sg74
(lp758
g386
asbag67
(g88
g69
NtRp759
(dp760
g72
(dp761
g99
g100
ssg81
g751
sg74
(lp762
S':'
asbag67
(g88
g69
NtRp763
(dp764
g72
(dp765
sg81
g751
sg74
(lp766
g67
(g68
g69
NtRp767
(dp768
g72
(dp769
g80
I3
ssg81
g763
sg74
(lp770
S''
asbasbasbag67
(g83
g69
NtRp771
(dp772
g72
(dp773
sg81
g647
sg74
(lp774
g67
(g88
g69
NtRp775
(dp776
g72
(dp777
g92
g93
ssg81
g771
sg74
(lp778
g407
asbag67
(g88
g69
NtRp779
(dp780
g72
(dp781
g99
g100
ssg81
g771
sg74
(lp782
S':'
asbag67
(g88
g69
NtRp783
(dp784
g72
(dp785
sg81
g771
sg74
(lp786
g67
(g68
g69
NtRp787
(dp788
g72
(dp789
g80
I3
ssg81
g783
sg74
(lp790
S''
asbasbasbag67
(g83
g69
NtRp791
(dp792
g72
(dp793
sg81
g647
sg74
(lp794
g67
(g88
g69
NtRp795
(dp796
g72
(dp797
g92
g93
ssg81
g791
sg74
(lp798
g428
asbag67
(g88
g69
NtRp799
(dp800
g72
(dp801
g99
g100
ssg81
g791
sg74
(lp802
S':'
asbag67
(g88
g69
NtRp803
(dp804
g72
(dp805
sg81
g791
sg74
(lp806
g67
(g68
g69
NtRp807
(dp808
g72
(dp809
g80
I3
ssg81
g803
sg74
(lp810
S''
asbasbasbasbasbasbasbasbasbasbasbag67
(g83
g69
NtRp811
(dp812
g72
(dp813
sg81
g77
sg74
(lp814
g67
(g88
g69
NtRp815
(dp816
g72
(dp817
g92
g93
ssg81
g811
sg74
(lp818
S'env'
p819
asbag67
(g88
g69
NtRp820
(dp821
g72
(dp822
g99
g100
ssg81
g811
sg74
(lp823
S':'
asbag67
(g88
g69
NtRp824
(dp825
g72
(dp826
sg81
g811
sg74
(lp827
g67
(g68
g69
NtRp828
(dp829
g72
(dp830
g80
I5
ssg81
g824
sg74
(lp831
g67
(g76
g69
NtRp832
(dp833
g72
(dp834
g80
I4
ssg81
Nsg74
(lp835
g67
(g83
g69
NtRp836
(dp837
g72
(dp838
sg81
g832
sg74
(lp839
g67
(g88
g69
NtRp840
(dp841
g72
(dp842
g92
g93
ssg81
g836
sg74
(lp843
S'app_folders'
p844
asbag67
(g88
g69
NtRp845
(dp846
g72
(dp847
g99
g100
ssg81
g836
sg74
(lp848
S':'
asbag67
(g88
g69
NtRp849
(dp850
g72
(dp851
sg81
g836
sg74
(lp852
g67
(g68
g69
NtRp853
(dp854
g72
(dp855
g80
I4
ssg81
g849
sg74
(lp856
S"set(['/Users/cyan/Package/GitHub/funback/web2py/applications/welcome/', '/Users/cyan/Package/GitHub/funback/web2py/applications/funback/'])"
p857
asbasbasbag67
(g83
g69
NtRp858
(dp859
g72
(dp860
sg81
g832
sg74
(lp861
g67
(g88
g69
NtRp862
(dp863
g72
(dp864
g92
g93
ssg81
g858
sg74
(lp865
S'applications_parent'
p866
asbag67
(g88
g69
NtRp867
(dp868
g72
(dp869
g99
g100
ssg81
g858
sg74
(lp870
S':'
asbag67
(g88
g69
NtRp871
(dp872
g72
(dp873
sg81
g858
sg74
(lp874
g67
(g68
g69
NtRp875
(dp876
g72
(dp877
g80
I4
ssg81
g871
sg74
(lp878
S'/Users/cyan/Package/GitHub/funback/web2py'
p879
asbasbasbag67
(g83
g69
NtRp880
(dp881
g72
(dp882
sg81
g832
sg74
(lp883
g67
(g88
g69
NtRp884
(dp885
g72
(dp886
g92
g93
ssg81
g880
sg74
(lp887
S'cmd_args'
p888
asbag67
(g88
g69
NtRp889
(dp890
g72
(dp891
g99
g100
ssg81
g880
sg74
(lp892
S':'
asbag67
(g88
g69
NtRp893
(dp894
g72
(dp895
sg81
g880
sg74
(lp896
g67
(g68
g69
NtRp897
(dp898
g72
(dp899
g80
I4
ssg81
g893
sg74
(lp900
g67
(g76
g69
NtRp901
(dp902
g72
(dp903
g80
I3
ssg81
Nsg74
(lp904
sbasbasbasbag67
(g83
g69
NtRp905
(dp906
g72
(dp907
sg81
g832
sg74
(lp908
g67
(g88
g69
NtRp909
(dp910
g72
(dp911
g92
g93
ssg81
g905
sg74
(lp912
S'cmd_options'
p913
asbag67
(g88
g69
NtRp914
(dp915
g72
(dp916
g99
g100
ssg81
g905
sg74
(lp917
S':'
asbag67
(g88
g69
NtRp918
(dp919
g72
(dp920
sg81
g905
sg74
(lp921
g67
(g68
g69
NtRp922
(dp923
g72
(dp924
g80
I4
ssg81
g918
sg74
(lp925
S"<Values at 0x101d3f5a8: {'verbose': False, 'ip': '127.0.0.1', 'shutdown_timeout': 5, 'taskbar': False, 'nocron': False, 'pid_filename': 'httpserver.pid', 'maxthreads': None, 'softcron': False, 'server_name': 'cyan-1.local', 'bpython': False, 'nogui': False, 'port': 8000, 'extcron': False, 'debuglevel': 30, 'test': None, 'folder': '/Users/cyan/Package/GitHub/funback/web2py', 'config': '', 'import_models': False, 'winservice': '', 'shell': None, 'run': '', 'log_filename': 'httpserver.log', 'args': [''], 'socket_timeout': 5, 'ssl_ca_certificate': None, 'scheduler': None, 'profiler_filename': None, 'ssl_private_key': '', 'password': '<ask>', 'request_queue_size': 5, 'ssl_certificate': '', 'cronjob': False, 'numthreads': None, 'quiet': False, 'interfaces': None, 'minthreads': None, 'timeout': 10, 'plain': False, 'nobanner': False}>"
p926
asbasbasbag67
(g83
g69
NtRp927
(dp928
g72
(dp929
sg81
g832
sg74
(lp930
g67
(g88
g69
NtRp931
(dp932
g72
(dp933
g92
g93
ssg81
g927
sg74
(lp934
S'content_length'
p935
asbag67
(g88
g69
NtRp936
(dp937
g72
(dp938
g99
g100
ssg81
g927
sg74
(lp939
S':'
asbag67
(g88
g69
NtRp940
(dp941
g72
(dp942
sg81
g927
sg74
(lp943
g67
(g68
g69
NtRp944
(dp945
g72
(dp946
g80
I4
ssg81
g940
sg74
(lp947
S'728'
p948
asbasbasbag67
(g83
g69
NtRp949
(dp950
g72
(dp951
sg81
g832
sg74
(lp952
g67
(g88
g69
NtRp953
(dp954
g72
(dp955
g92
g93
ssg81
g949
sg74
(lp956
S'content_type'
p957
asbag67
(g88
g69
NtRp958
(dp959
g72
(dp960
g99
g100
ssg81
g949
sg74
(lp961
S':'
asbag67
(g88
g69
NtRp962
(dp963
g72
(dp964
sg81
g949
sg74
(lp965
g67
(g68
g69
NtRp966
(dp967
g72
(dp968
g80
I4
ssg81
g962
sg74
(lp969
S'multipart/form-data; boundary=----WebKitFormBoundaryBviyNkmG5VCJF0cn'
p970
asbasbasbag67
(g83
g69
NtRp971
(dp972
g72
(dp973
sg81
g832
sg74
(lp974
g67
(g88
g69
NtRp975
(dp976
g72
(dp977
g92
g93
ssg81
g971
sg74
(lp978
S'db_sessions'
p979
asbag67
(g88
g69
NtRp980
(dp981
g72
(dp982
g99
g100
ssg81
g971
sg74
(lp983
S':'
asbag67
(g88
g69
NtRp984
(dp985
g72
(dp986
sg81
g971
sg74
(lp987
g67
(g68
g69
NtRp988
(dp989
g72
(dp990
g80
I4
ssg81
g984
sg74
(lp991
S'set([])'
p992
asbasbasbag67
(g83
g69
NtRp993
(dp994
g72
(dp995
sg81
g832
sg74
(lp996
g67
(g88
g69
NtRp997
(dp998
g72
(dp999
g92
g93
ssg81
g993
sg74
(lp1000
S'debugging'
p1001
asbag67
(g88
g69
NtRp1002
(dp1003
g72
(dp1004
g99
g100
ssg81
g993
sg74
(lp1005
S':'
asbag67
(g88
g69
NtRp1006
(dp1007
g72
(dp1008
sg81
g993
sg74
(lp1009
g67
(g68
g69
NtRp1010
(dp1011
g72
(dp1012
g80
I4
ssg81
g1006
sg74
(lp1013
g110
asbasbasbag67
(g83
g69
NtRp1014
(dp1015
g72
(dp1016
sg81
g832
sg74
(lp1017
g67
(g88
g69
NtRp1018
(dp1019
g72
(dp1020
g92
g93
ssg81
g1014
sg74
(lp1021
S'gluon_parent'
p1022
asbag67
(g88
g69
NtRp1023
(dp1024
g72
(dp1025
g99
g100
ssg81
g1014
sg74
(lp1026
S':'
asbag67
(g88
g69
NtRp1027
(dp1028
g72
(dp1029
sg81
g1014
sg74
(lp1030
g67
(g68
g69
NtRp1031
(dp1032
g72
(dp1033
g80
I4
ssg81
g1027
sg74
(lp1034
S'/Users/cyan/Package/GitHub/funback/web2py'
p1035
asbasbasbag67
(g83
g69
NtRp1036
(dp1037
g72
(dp1038
sg81
g832
sg74
(lp1039
g67
(g88
g69
NtRp1040
(dp1041
g72
(dp1042
g92
g93
ssg81
g1036
sg74
(lp1043
S'http_accept'
p1044
asbag67
(g88
g69
NtRp1045
(dp1046
g72
(dp1047
g99
g100
ssg81
g1036
sg74
(lp1048
S':'
asbag67
(g88
g69
NtRp1049
(dp1050
g72
(dp1051
sg81
g1036
sg74
(lp1052
g67
(g68
g69
NtRp1053
(dp1054
g72
(dp1055
g80
I4
ssg81
g1049
sg74
(lp1056
S'text/html,application/xhtml+xml,application/xml;q=0.9,*/*;q=0.8'
p1057
asbasbasbag67
(g83
g69
NtRp1058
(dp1059
g72
(dp1060
sg81
g832
sg74
(lp1061
g67
(g88
g69
NtRp1062
(dp1063
g72
(dp1064
g92
g93
ssg81
g1058
sg74
(lp1065
S'http_accept_charset'
p1066
asbag67
(g88
g69
NtRp1067
(dp1068
g72
(dp1069
g99
g100
ssg81
g1058
sg74
(lp1070
S':'
asbag67
(g88
g69
NtRp1071
(dp1072
g72
(dp1073
sg81
g1058
sg74
(lp1074
g67
(g68
g69
NtRp1075
(dp1076
g72
(dp1077
g80
I4
ssg81
g1071
sg74
(lp1078
S'ISO-8859-1,utf-8;q=0.7,*;q=0.3'
p1079
asbasbasbag67
(g83
g69
NtRp1080
(dp1081
g72
(dp1082
sg81
g832
sg74
(lp1083
g67
(g88
g69
NtRp1084
(dp1085
g72
(dp1086
g92
g93
ssg81
g1080
sg74
(lp1087
S'http_accept_encoding'
p1088
asbag67
(g88
g69
NtRp1089
(dp1090
g72
(dp1091
g99
g100
ssg81
g1080
sg74
(lp1092
S':'
asbag67
(g88
g69
NtRp1093
(dp1094
g72
(dp1095
sg81
g1080
sg74
(lp1096
g67
(g68
g69
NtRp1097
(dp1098
g72
(dp1099
g80
I4
ssg81
g1093
sg74
(lp1100
S'gzip,deflate,sdch'
p1101
asbasbasbag67
(g83
g69
NtRp1102
(dp1103
g72
(dp1104
sg81
g832
sg74
(lp1105
g67
(g88
g69
NtRp1106
(dp1107
g72
(dp1108
g92
g93
ssg81
g1102
sg74
(lp1109
S'http_accept_language'
p1110
asbag67
(g88
g69
NtRp1111
(dp1112
g72
(dp1113
g99
g100
ssg81
g1102
sg74
(lp1114
S':'
asbag67
(g88
g69
NtRp1115
(dp1116
g72
(dp1117
sg81
g1102
sg74
(lp1118
g67
(g68
g69
NtRp1119
(dp1120
g72
(dp1121
g80
I4
ssg81
g1115
sg74
(lp1122
S'en-US,en;q=0.8'
p1123
asbasbasbag67
(g83
g69
NtRp1124
(dp1125
g72
(dp1126
sg81
g832
sg74
(lp1127
g67
(g88
g69
NtRp1128
(dp1129
g72
(dp1130
g92
g93
ssg81
g1124
sg74
(lp1131
S'http_cache_control'
p1132
asbag67
(g88
g69
NtRp1133
(dp1134
g72
(dp1135
g99
g100
ssg81
g1124
sg74
(lp1136
S':'
asbag67
(g88
g69
NtRp1137
(dp1138
g72
(dp1139
sg81
g1124
sg74
(lp1140
g67
(g68
g69
NtRp1141
(dp1142
g72
(dp1143
g80
I4
ssg81
g1137
sg74
(lp1144
S'max-age=0'
p1145
asbasbasbag67
(g83
g69
NtRp1146
(dp1147
g72
(dp1148
sg81
g832
sg74
(lp1149
g67
(g88
g69
NtRp1150
(dp1151
g72
(dp1152
g92
g93
ssg81
g1146
sg74
(lp1153
S'http_connection'
p1154
asbag67
(g88
g69
NtRp1155
(dp1156
g72
(dp1157
g99
g100
ssg81
g1146
sg74
(lp1158
S':'
asbag67
(g88
g69
NtRp1159
(dp1160
g72
(dp1161
sg81
g1146
sg74
(lp1162
g67
(g68
g69
NtRp1163
(dp1164
g72
(dp1165
g80
I4
ssg81
g1159
sg74
(lp1166
S'keep-alive'
p1167
asbasbasbag67
(g83
g69
NtRp1168
(dp1169
g72
(dp1170
sg81
g832
sg74
(lp1171
g67
(g88
g69
NtRp1172
(dp1173
g72
(dp1174
g92
g93
ssg81
g1168
sg74
(lp1175
S'http_content_length'
p1176
asbag67
(g88
g69
NtRp1177
(dp1178
g72
(dp1179
g99
g100
ssg81
g1168
sg74
(lp1180
S':'
asbag67
(g88
g69
NtRp1181
(dp1182
g72
(dp1183
sg81
g1168
sg74
(lp1184
g67
(g68
g69
NtRp1185
(dp1186
g72
(dp1187
g80
I4
ssg81
g1181
sg74
(lp1188
g948
asbasbasbag67
(g83
g69
NtRp1189
(dp1190
g72
(dp1191
sg81
g832
sg74
(lp1192
g67
(g88
g69
NtRp1193
(dp1194
g72
(dp1195
g92
g93
ssg81
g1189
sg74
(lp1196
S'http_content_type'
p1197
asbag67
(g88
g69
NtRp1198
(dp1199
g72
(dp1200
g99
g100
ssg81
g1189
sg74
(lp1201
S':'
asbag67
(g88
g69
NtRp1202
(dp1203
g72
(dp1204
sg81
g1189
sg74
(lp1205
g67
(g68
g69
NtRp1206
(dp1207
g72
(dp1208
g80
I4
ssg81
g1202
sg74
(lp1209
g970
asbasbasbag67
(g83
g69
NtRp1210
(dp1211
g72
(dp1212
sg81
g832
sg74
(lp1213
g67
(g88
g69
NtRp1214
(dp1215
g72
(dp1216
g92
g93
ssg81
g1210
sg74
(lp1217
S'http_cookie'
p1218
asbag67
(g88
g69
NtRp1219
(dp1220
g72
(dp1221
g99
g100
ssg81
g1210
sg74
(lp1222
S':'
asbag67
(g88
g69
NtRp1223
(dp1224
g72
(dp1225
sg81
g1210
sg74
(lp1226
g67
(g68
g69
NtRp1227
(dp1228
g72
(dp1229
g80
I4
ssg81
g1223
sg74
(lp1230
S'session_id_admin=127.0.0.1-b4bae160-2709-4a28-a777-1c0c5039c6e9; session_id_welcome=127.0.0.1-adc461ee-370c-466e-8cf4-5c2d934c34cb; session_id_funback=127.0.0.1-e25f12f5-78b1-4973-96b7-3e18a5eced54'
p1231
asbasbasbag67
(g83
g69
NtRp1232
(dp1233
g72
(dp1234
sg81
g832
sg74
(lp1235
g67
(g88
g69
NtRp1236
(dp1237
g72
(dp1238
g92
g93
ssg81
g1232
sg74
(lp1239
S'http_host'
p1240
asbag67
(g88
g69
NtRp1241
(dp1242
g72
(dp1243
g99
g100
ssg81
g1232
sg74
(lp1244
S':'
asbag67
(g88
g69
NtRp1245
(dp1246
g72
(dp1247
sg81
g1232
sg74
(lp1248
g67
(g68
g69
NtRp1249
(dp1250
g72
(dp1251
g80
I4
ssg81
g1245
sg74
(lp1252
S'127.0.0.1:8000'
p1253
asbasbasbag67
(g83
g69
NtRp1254
(dp1255
g72
(dp1256
sg81
g832
sg74
(lp1257
g67
(g88
g69
NtRp1258
(dp1259
g72
(dp1260
g92
g93
ssg81
g1254
sg74
(lp1261
S'http_origin'
p1262
asbag67
(g88
g69
NtRp1263
(dp1264
g72
(dp1265
g99
g100
ssg81
g1254
sg74
(lp1266
S':'
asbag67
(g88
g69
NtRp1267
(dp1268
g72
(dp1269
sg81
g1254
sg74
(lp1270
g67
(g68
g69
NtRp1271
(dp1272
g72
(dp1273
g80
I4
ssg81
g1267
sg74
(lp1274
S'http://127.0.0.1:8000'
p1275
asbasbasbag67
(g83
g69
NtRp1276
(dp1277
g72
(dp1278
sg81
g832
sg74
(lp1279
g67
(g88
g69
NtRp1280
(dp1281
g72
(dp1282
g92
g93
ssg81
g1276
sg74
(lp1283
S'http_referer'
p1284
asbag67
(g88
g69
NtRp1285
(dp1286
g72
(dp1287
g99
g100
ssg81
g1276
sg74
(lp1288
S':'
asbag67
(g88
g69
NtRp1289
(dp1290
g72
(dp1291
sg81
g1276
sg74
(lp1292
g67
(g68
g69
NtRp1293
(dp1294
g72
(dp1295
g80
I4
ssg81
g1289
sg74
(lp1296
S'http://127.0.0.1:8000/funback/account/register'
p1297
asbasbasbag67
(g83
g69
NtRp1298
(dp1299
g72
(dp1300
sg81
g832
sg74
(lp1301
g67
(g88
g69
NtRp1302
(dp1303
g72
(dp1304
g92
g93
ssg81
g1298
sg74
(lp1305
S'http_user_agent'
p1306
asbag67
(g88
g69
NtRp1307
(dp1308
g72
(dp1309
g99
g100
ssg81
g1298
sg74
(lp1310
S':'
asbag67
(g88
g69
NtRp1311
(dp1312
g72
(dp1313
sg81
g1298
sg74
(lp1314
g67
(g68
g69
NtRp1315
(dp1316
g72
(dp1317
g80
I4
ssg81
g1311
sg74
(lp1318
S'Mozilla/5.0 (Macintosh; Intel Mac OS X 10_6_8) AppleWebKit/535.19 (KHTML, like Gecko) Chrome/18.0.1025.151 Safari/535.19'
p1319
asbasbasbag67
(g83
g69
NtRp1320
(dp1321
g72
(dp1322
sg81
g832
sg74
(lp1323
g67
(g88
g69
NtRp1324
(dp1325
g72
(dp1326
g92
g93
ssg81
g1320
sg74
(lp1327
S'is_jython'
p1328
asbag67
(g88
g69
NtRp1329
(dp1330
g72
(dp1331
g99
g100
ssg81
g1320
sg74
(lp1332
S':'
asbag67
(g88
g69
NtRp1333
(dp1334
g72
(dp1335
sg81
g1320
sg74
(lp1336
g67
(g68
g69
NtRp1337
(dp1338
g72
(dp1339
g80
I4
ssg81
g1333
sg74
(lp1340
g110
asbasbasbag67
(g83
g69
NtRp1341
(dp1342
g72
(dp1343
sg81
g832
sg74
(lp1344
g67
(g88
g69
NtRp1345
(dp1346
g72
(dp1347
g92
g93
ssg81
g1341
sg74
(lp1348
S'is_pypy'
p1349
asbag67
(g88
g69
NtRp1350
(dp1351
g72
(dp1352
g99
g100
ssg81
g1341
sg74
(lp1353
S':'
asbag67
(g88
g69
NtRp1354
(dp1355
g72
(dp1356
sg81
g1341
sg74
(lp1357
g67
(g68
g69
NtRp1358
(dp1359
g72
(dp1360
g80
I4
ssg81
g1354
sg74
(lp1361
g110
asbasbasbag67
(g83
g69
NtRp1362
(dp1363
g72
(dp1364
sg81
g832
sg74
(lp1365
g67
(g88
g69
NtRp1366
(dp1367
g72
(dp1368
g92
g93
ssg81
g1362
sg74
(lp1369
S'path_info'
p1370
asbag67
(g88
g69
NtRp1371
(dp1372
g72
(dp1373
g99
g100
ssg81
g1362
sg74
(lp1374
S':'
asbag67
(g88
g69
NtRp1375
(dp1376
g72
(dp1377
sg81
g1362
sg74
(lp1378
g67
(g68
g69
NtRp1379
(dp1380
g72
(dp1381
g80
I4
ssg81
g1375
sg74
(lp1382
S'/funback/account/register'
p1383
asbasbasbag67
(g83
g69
NtRp1384
(dp1385
g72
(dp1386
sg81
g832
sg74
(lp1387
g67
(g88
g69
NtRp1388
(dp1389
g72
(dp1390
g92
g93
ssg81
g1384
sg74
(lp1391
S'query_string'
p1392
asbag67
(g88
g69
NtRp1393
(dp1394
g72
(dp1395
g99
g100
ssg81
g1384
sg74
(lp1396
S':'
asbag67
(g88
g69
NtRp1397
(dp1398
g72
(dp1399
sg81
g1384
sg74
(lp1400
g67
(g68
g69
NtRp1401
(dp1402
g72
(dp1403
g80
I4
ssg81
g1397
sg74
(lp1404
S''
asbasbasbag67
(g83
g69
NtRp1405
(dp1406
g72
(dp1407
sg81
g832
sg74
(lp1408
g67
(g88
g69
NtRp1409
(dp1410
g72
(dp1411
g92
g93
ssg81
g1405
sg74
(lp1412
S'remote_addr'
p1413
asbag67
(g88
g69
NtRp1414
(dp1415
g72
(dp1416
g99
g100
ssg81
g1405
sg74
(lp1417
S':'
asbag67
(g88
g69
NtRp1418
(dp1419
g72
(dp1420
sg81
g1405
sg74
(lp1421
g67
(g68
g69
NtRp1422
(dp1423
g72
(dp1424
g80
I4
ssg81
g1418
sg74
(lp1425
g200
asbasbasbag67
(g83
g69
NtRp1426
(dp1427
g72
(dp1428
sg81
g832
sg74
(lp1429
g67
(g88
g69
NtRp1430
(dp1431
g72
(dp1432
g92
g93
ssg81
g1426
sg74
(lp1433
S'remote_port'
p1434
asbag67
(g88
g69
NtRp1435
(dp1436
g72
(dp1437
g99
g100
ssg81
g1426
sg74
(lp1438
S':'
asbag67
(g88
g69
NtRp1439
(dp1440
g72
(dp1441
sg81
g1426
sg74
(lp1442
g67
(g68
g69
NtRp1443
(dp1444
g72
(dp1445
g80
I4
ssg81
g1439
sg74
(lp1446
S'52340'
p1447
asbasbasbag67
(g83
g69
NtRp1448
(dp1449
g72
(dp1450
sg81
g832
sg74
(lp1451
g67
(g88
g69
NtRp1452
(dp1453
g72
(dp1454
g92
g93
ssg81
g1448
sg74
(lp1455
S'request_method'
p1456
asbag67
(g88
g69
NtRp1457
(dp1458
g72
(dp1459
g99
g100
ssg81
g1448
sg74
(lp1460
S':'
asbag67
(g88
g69
NtRp1461
(dp1462
g72
(dp1463
sg81
g1448
sg74
(lp1464
g67
(g68
g69
NtRp1465
(dp1466
g72
(dp1467
g80
I4
ssg81
g1461
sg74
(lp1468
S'POST'
p1469
asbasbasbag67
(g83
g69
NtRp1470
(dp1471
g72
(dp1472
sg81
g832
sg74
(lp1473
g67
(g88
g69
NtRp1474
(dp1475
g72
(dp1476
g92
g93
ssg81
g1470
sg74
(lp1477
S'script_name'
p1478
asbag67
(g88
g69
NtRp1479
(dp1480
g72
(dp1481
g99
g100
ssg81
g1470
sg74
(lp1482
S':'
asbag67
(g88
g69
NtRp1483
(dp1484
g72
(dp1485
sg81
g1470
sg74
(lp1486
g67
(g68
g69
NtRp1487
(dp1488
g72
(dp1489
g80
I4
ssg81
g1483
sg74
(lp1490
S''
asbasbasbag67
(g83
g69
NtRp1491
(dp1492
g72
(dp1493
sg81
g832
sg74
(lp1494
g67
(g88
g69
NtRp1495
(dp1496
g72
(dp1497
g92
g93
ssg81
g1491
sg74
(lp1498
S'server_name'
p1499
asbag67
(g88
g69
NtRp1500
(dp1501
g72
(dp1502
g99
g100
ssg81
g1491
sg74
(lp1503
S':'
asbag67
(g88
g69
NtRp1504
(dp1505
g72
(dp1506
sg81
g1491
sg74
(lp1507
g67
(g68
g69
NtRp1508
(dp1509
g72
(dp1510
g80
I4
ssg81
g1504
sg74
(lp1511
S'cyan-1.local'
p1512
asbasbasbag67
(g83
g69
NtRp1513
(dp1514
g72
(dp1515
sg81
g832
sg74
(lp1516
g67
(g88
g69
NtRp1517
(dp1518
g72
(dp1519
g92
g93
ssg81
g1513
sg74
(lp1520
S'server_port'
p1521
asbag67
(g88
g69
NtRp1522
(dp1523
g72
(dp1524
g99
g100
ssg81
g1513
sg74
(lp1525
S':'
asbag67
(g88
g69
NtRp1526
(dp1527
g72
(dp1528
sg81
g1513
sg74
(lp1529
g67
(g68
g69
NtRp1530
(dp1531
g72
(dp1532
g80
I4
ssg81
g1526
sg74
(lp1533
S'8000'
p1534
asbasbasbag67
(g83
g69
NtRp1535
(dp1536
g72
(dp1537
sg81
g832
sg74
(lp1538
g67
(g88
g69
NtRp1539
(dp1540
g72
(dp1541
g92
g93
ssg81
g1535
sg74
(lp1542
S'server_protocol'
p1543
asbag67
(g88
g69
NtRp1544
(dp1545
g72
(dp1546
g99
g100
ssg81
g1535
sg74
(lp1547
S':'
asbag67
(g88
g69
NtRp1548
(dp1549
g72
(dp1550
sg81
g1535
sg74
(lp1551
g67
(g68
g69
NtRp1552
(dp1553
g72
(dp1554
g80
I4
ssg81
g1548
sg74
(lp1555
S'HTTP/1.1'
p1556
asbasbasbag67
(g83
g69
NtRp1557
(dp1558
g72
(dp1559
sg81
g832
sg74
(lp1560
g67
(g88
g69
NtRp1561
(dp1562
g72
(dp1563
g92
g93
ssg81
g1557
sg74
(lp1564
S'server_software'
p1565
asbag67
(g88
g69
NtRp1566
(dp1567
g72
(dp1568
g99
g100
ssg81
g1557
sg74
(lp1569
S':'
asbag67
(g88
g69
NtRp1570
(dp1571
g72
(dp1572
sg81
g1557
sg74
(lp1573
g67
(g68
g69
NtRp1574
(dp1575
g72
(dp1576
g80
I4
ssg81
g1570
sg74
(lp1577
S'Rocket 1.2.4'
p1578
asbasbasbag67
(g83
g69
NtRp1579
(dp1580
g72
(dp1581
sg81
g832
sg74
(lp1582
g67
(g88
g69
NtRp1583
(dp1584
g72
(dp1585
g92
g93
ssg81
g1579
sg74
(lp1586
S'web2py_crontype'
p1587
asbag67
(g88
g69
NtRp1588
(dp1589
g72
(dp1590
g99
g100
ssg81
g1579
sg74
(lp1591
S':'
asbag67
(g88
g69
NtRp1592
(dp1593
g72
(dp1594
sg81
g1579
sg74
(lp1595
g67
(g68
g69
NtRp1596
(dp1597
g72
(dp1598
g80
I4
ssg81
g1592
sg74
(lp1599
S'hard'
p1600
asbasbasbag67
(g83
g69
NtRp1601
(dp1602
g72
(dp1603
sg81
g832
sg74
(lp1604
g67
(g88
g69
NtRp1605
(dp1606
g72
(dp1607
g92
g93
ssg81
g1601
sg74
(lp1608
S'web2py_path'
p1609
asbag67
(g88
g69
NtRp1610
(dp1611
g72
(dp1612
g99
g100
ssg81
g1601
sg74
(lp1613
S':'
asbag67
(g88
g69
NtRp1614
(dp1615
g72
(dp1616
sg81
g1601
sg74
(lp1617
g67
(g68
g69
NtRp1618
(dp1619
g72
(dp1620
g80
I4
ssg81
g1614
sg74
(lp1621
g879
asbasbasbag67
(g83
g69
NtRp1622
(dp1623
g72
(dp1624
sg81
g832
sg74
(lp1625
g67
(g88
g69
NtRp1626
(dp1627
g72
(dp1628
g92
g93
ssg81
g1622
sg74
(lp1629
S'web2py_version'
p1630
asbag67
(g88
g69
NtRp1631
(dp1632
g72
(dp1633
g99
g100
ssg81
g1622
sg74
(lp1634
S':'
asbag67
(g88
g69
NtRp1635
(dp1636
g72
(dp1637
sg81
g1622
sg74
(lp1638
g67
(g68
g69
NtRp1639
(dp1640
g72
(dp1641
g80
I4
ssg81
g1635
sg74
(lp1642
g67
(g76
g69
NtRp1643
(dp1644
g72
(dp1645
g80
I3
ssg81
Nsg74
(lp1646
g67
(g83
g69
NtRp1647
(dp1648
g72
(dp1649
sg81
g1643
sg74
(lp1650
g67
(g88
g69
NtRp1651
(dp1652
g72
(dp1653
sg81
g1647
sg74
(lp1654
g67
(g68
g69
NtRp1655
(dp1656
g72
(dp1657
g80
I3
ssg81
g1651
sg74
(lp1658
S'1'
asbasbasbag67
(g83
g69
NtRp1659
(dp1660
g72
(dp1661
sg81
g1643
sg74
(lp1662
g67
(g88
g69
NtRp1663
(dp1664
g72
(dp1665
sg81
g1659
sg74
(lp1666
g67
(g68
g69
NtRp1667
(dp1668
g72
(dp1669
g80
I3
ssg81
g1663
sg74
(lp1670
S'99'
p1671
asbasbasbag67
(g83
g69
NtRp1672
(dp1673
g72
(dp1674
sg81
g1643
sg74
(lp1675
g67
(g88
g69
NtRp1676
(dp1677
g72
(dp1678
sg81
g1672
sg74
(lp1679
g67
(g68
g69
NtRp1680
(dp1681
g72
(dp1682
g80
I3
ssg81
g1676
sg74
(lp1683
S'7'
asbasbasbag67
(g83
g69
NtRp1684
(dp1685
g72
(dp1686
sg81
g1643
sg74
(lp1687
g67
(g88
g69
NtRp1688
(dp1689
g72
(dp1690
sg81
g1684
sg74
(lp1691
g67
(g68
g69
NtRp1692
(dp1693
g72
(dp1694
g80
I3
ssg81
g1688
sg74
(lp1695
S'datetime.datetime(2012, 3, 4, 22, 12, 8)'
p1696
asbasbasbag67
(g83
g69
NtRp1697
(dp1698
g72
(dp1699
sg81
g1643
sg74
(lp1700
g67
(g88
g69
NtRp1701
(dp1702
g72
(dp1703
sg81
g1697
sg74
(lp1704
g67
(g68
g69
NtRp1705
(dp1706
g72
(dp1707
g80
I3
ssg81
g1701
sg74
(lp1708
S'stable'
p1709
asbasbasbasbasbasbasbag67
(g83
g69
NtRp1710
(dp1711
g72
(dp1712
sg81
g832
sg74
(lp1713
g67
(g88
g69
NtRp1714
(dp1715
g72
(dp1716
g92
g93
ssg81
g1710
sg74
(lp1717
S'wsgi_errors'
p1718
asbag67
(g88
g69
NtRp1719
(dp1720
g72
(dp1721
g99
g100
ssg81
g1710
sg74
(lp1722
S':'
asbag67
(g88
g69
NtRp1723
(dp1724
g72
(dp1725
sg81
g1710
sg74
(lp1726
g67
(g68
g69
NtRp1727
(dp1728
g72
(dp1729
g80
I4
ssg81
g1723
sg74
(lp1730
S"<open file '<stderr>', mode 'w' at 0x100283270>"
p1731
asbasbasbag67
(g83
g69
NtRp1732
(dp1733
g72
(dp1734
sg81
g832
sg74
(lp1735
g67
(g88
g69
NtRp1736
(dp1737
g72
(dp1738
g92
g93
ssg81
g1732
sg74
(lp1739
S'wsgi_file_wrapper'
p1740
asbag67
(g88
g69
NtRp1741
(dp1742
g72
(dp1743
g99
g100
ssg81
g1732
sg74
(lp1744
S':'
asbag67
(g88
g69
NtRp1745
(dp1746
g72
(dp1747
sg81
g1732
sg74
(lp1748
g67
(g68
g69
NtRp1749
(dp1750
g72
(dp1751
g80
I4
ssg81
g1745
sg74
(lp1752
S'<class wsgiref.util.FileWrapper at 0x101b468d8>'
p1753
asbasbasbag67
(g83
g69
NtRp1754
(dp1755
g72
(dp1756
sg81
g832
sg74
(lp1757
g67
(g88
g69
NtRp1758
(dp1759
g72
(dp1760
g92
g93
ssg81
g1754
sg74
(lp1761
S'wsgi_input'
p1762
asbag67
(g88
g69
NtRp1763
(dp1764
g72
(dp1765
g99
g100
ssg81
g1754
sg74
(lp1766
S':'
asbag67
(g88
g69
NtRp1767
(dp1768
g72
(dp1769
sg81
g1754
sg74
(lp1770
g67
(g68
g69
NtRp1771
(dp1772
g72
(dp1773
g80
I4
ssg81
g1767
sg74
(lp1774
S'<socket._fileobject object at 0x117f980d0>'
p1775
asbasbasbag67
(g83
g69
NtRp1776
(dp1777
g72
(dp1778
sg81
g832
sg74
(lp1779
g67
(g88
g69
NtRp1780
(dp1781
g72
(dp1782
g92
g93
ssg81
g1776
sg74
(lp1783
S'wsgi_multiprocess'
p1784
asbag67
(g88
g69
NtRp1785
(dp1786
g72
(dp1787
g99
g100
ssg81
g1776
sg74
(lp1788
S':'
asbag67
(g88
g69
NtRp1789
(dp1790
g72
(dp1791
sg81
g1776
sg74
(lp1792
g67
(g68
g69
NtRp1793
(dp1794
g72
(dp1795
g80
I4
ssg81
g1789
sg74
(lp1796
g110
asbasbasbag67
(g83
g69
NtRp1797
(dp1798
g72
(dp1799
sg81
g832
sg74
(lp1800
g67
(g88
g69
NtRp1801
(dp1802
g72
(dp1803
g92
g93
ssg81
g1797
sg74
(lp1804
S'wsgi_multithread'
p1805
asbag67
(g88
g69
NtRp1806
(dp1807
g72
(dp1808
g99
g100
ssg81
g1797
sg74
(lp1809
S':'
asbag67
(g88
g69
NtRp1810
(dp1811
g72
(dp1812
sg81
g1797
sg74
(lp1813
g67
(g68
g69
NtRp1814
(dp1815
g72
(dp1816
g80
I4
ssg81
g1810
sg74
(lp1817
S'True'
p1818
asbasbasbag67
(g83
g69
NtRp1819
(dp1820
g72
(dp1821
sg81
g832
sg74
(lp1822
g67
(g88
g69
NtRp1823
(dp1824
g72
(dp1825
g92
g93
ssg81
g1819
sg74
(lp1826
S'wsgi_run_once'
p1827
asbag67
(g88
g69
NtRp1828
(dp1829
g72
(dp1830
g99
g100
ssg81
g1819
sg74
(lp1831
S':'
asbag67
(g88
g69
NtRp1832
(dp1833
g72
(dp1834
sg81
g1819
sg74
(lp1835
g67
(g68
g69
NtRp1836
(dp1837
g72
(dp1838
g80
I4
ssg81
g1832
sg74
(lp1839
g110
asbasbasbag67
(g83
g69
NtRp1840
(dp1841
g72
(dp1842
sg81
g832
sg74
(lp1843
g67
(g88
g69
NtRp1844
(dp1845
g72
(dp1846
g92
g93
ssg81
g1840
sg74
(lp1847
S'wsgi_url_scheme'
p1848
asbag67
(g88
g69
NtRp1849
(dp1850
g72
(dp1851
g99
g100
ssg81
g1840
sg74
(lp1852
S':'
asbag67
(g88
g69
NtRp1853
(dp1854
g72
(dp1855
sg81
g1840
sg74
(lp1856
g67
(g68
g69
NtRp1857
(dp1858
g72
(dp1859
g80
I4
ssg81
g1853
sg74
(lp1860
S'http'
p1861
asbasbasbag67
(g83
g69
NtRp1862
(dp1863
g72
(dp1864
sg81
g832
sg74
(lp1865
g67
(g88
g69
NtRp1866
(dp1867
g72
(dp1868
g92
g93
ssg81
g1862
sg74
(lp1869
S'wsgi_version'
p1870
asbag67
(g88
g69
NtRp1871
(dp1872
g72
(dp1873
g99
g100
ssg81
g1862
sg74
(lp1874
S':'
asbag67
(g88
g69
NtRp1875
(dp1876
g72
(dp1877
sg81
g1862
sg74
(lp1878
g67
(g68
g69
NtRp1879
(dp1880
g72
(dp1881
g80
I4
ssg81
g1875
sg74
(lp1882
g67
(g76
g69
NtRp1883
(dp1884
g72
(dp1885
g80
I3
ssg81
Nsg74
(lp1886
g67
(g83
g69
NtRp1887
(dp1888
g72
(dp1889
sg81
g1883
sg74
(lp1890
g67
(g88
g69
NtRp1891
(dp1892
g72
(dp1893
sg81
g1887
sg74
(lp1894
g67
(g68
g69
NtRp1895
(dp1896
g72
(dp1897
g80
I3
ssg81
g1891
sg74
(lp1898
S'1'
asbasbasbag67
(g83
g69
NtRp1899
(dp1900
g72
(dp1901
sg81
g1883
sg74
(lp1902
g67
(g88
g69
NtRp1903
(dp1904
g72
(dp1905
sg81
g1899
sg74
(lp1906
g67
(g68
g69
NtRp1907
(dp1908
g72
(dp1909
g80
I3
ssg81
g1903
sg74
(lp1910
S'0'
asbasbasbasbasbasbasbasbasbasbasbag67
(g83
g69
NtRp1911
(dp1912
g72
(dp1913
sg81
g77
sg74
(lp1914
g67
(g88
g69
NtRp1915
(dp1916
g72
(dp1917
g92
g93
ssg81
g1911
sg74
(lp1918
S'extension'
p1919
asbag67
(g88
g69
NtRp1920
(dp1921
g72
(dp1922
g99
g100
ssg81
g1911
sg74
(lp1923
S':'
asbag67
(g88
g69
NtRp1924
(dp1925
g72
(dp1926
sg81
g1911
sg74
(lp1927
g67
(g68
g69
NtRp1928
(dp1929
g72
(dp1930
g80
I5
ssg81
g1924
sg74
(lp1931
S'html'
p1932
asbasbasbag67
(g83
g69
NtRp1933
(dp1934
g72
(dp1935
sg81
g77
sg74
(lp1936
g67
(g88
g69
NtRp1937
(dp1938
g72
(dp1939
g92
g93
ssg81
g1933
sg74
(lp1940
S'folder'
p1941
asbag67
(g88
g69
NtRp1942
(dp1943
g72
(dp1944
g99
g100
ssg81
g1933
sg74
(lp1945
S':'
asbag67
(g88
g69
NtRp1946
(dp1947
g72
(dp1948
sg81
g1933
sg74
(lp1949
g67
(g68
g69
NtRp1950
(dp1951
g72
(dp1952
g80
I5
ssg81
g1946
sg74
(lp1953
S'/Users/cyan/Package/GitHub/funback/web2py/applications/funback/'
p1954
asbasbasbag67
(g83
g69
NtRp1955
(dp1956
g72
(dp1957
sg81
g77
sg74
(lp1958
g67
(g88
g69
NtRp1959
(dp1960
g72
(dp1961
g92
g93
ssg81
g1955
sg74
(lp1962
S'function'
p1963
asbag67
(g88
g69
NtRp1964
(dp1965
g72
(dp1966
g99
g100
ssg81
g1955
sg74
(lp1967
S':'
asbag67
(g88
g69
NtRp1968
(dp1969
g72
(dp1970
sg81
g1955
sg74
(lp1971
g67
(g68
g69
NtRp1972
(dp1973
g72
(dp1974
g80
I5
ssg81
g1968
sg74
(lp1975
S'register'
p1976
asbasbasbag67
(g83
g69
NtRp1977
(dp1978
g72
(dp1979
sg81
g77
sg74
(lp1980
g67
(g88
g69
NtRp1981
(dp1982
g72
(dp1983
g92
g93
ssg81
g1977
sg74
(lp1984
S'get_vars'
p1985
asbag67
(g88
g69
NtRp1986
(dp1987
g72
(dp1988
g99
g100
ssg81
g1977
sg74
(lp1989
S':'
asbag67
(g88
g69
NtRp1990
(dp1991
g72
(dp1992
sg81
g1977
sg74
(lp1993
g67
(g68
g69
NtRp1994
(dp1995
g72
(dp1996
g80
I5
ssg81
g1990
sg74
(lp1997
g67
(g76
g69
NtRp1998
(dp1999
g72
(dp2000
g80
I4
ssg81
Nsg74
(lp2001
sbasbasbasbag67
(g83
g69
NtRp2002
(dp2003
g72
(dp2004
sg81
g77
sg74
(lp2005
g67
(g88
g69
NtRp2006
(dp2007
g72
(dp2008
g92
g93
ssg81
g2002
sg74
(lp2009
S'global_settings'
p2010
asbag67
(g88
g69
NtRp2011
(dp2012
g72
(dp2013
g99
g100
ssg81
g2002
sg74
(lp2014
S':'
asbag67
(g88
g69
NtRp2015
(dp2016
g72
(dp2017
sg81
g2002
sg74
(lp2018
g67
(g68
g69
NtRp2019
(dp2020
g72
(dp2021
g80
I5
ssg81
g2015
sg74
(lp2022
g67
(g76
g69
NtRp2023
(dp2024
g72
(dp2025
g80
I4
ssg81
Nsg74
(lp2026
g67
(g83
g69
NtRp2027
(dp2028
g72
(dp2029
sg81
g2023
sg74
(lp2030
g67
(g88
g69
NtRp2031
(dp2032
g72
(dp2033
g92
g93
ssg81
g2027
sg74
(lp2034
g844
asbag67
(g88
g69
NtRp2035
(dp2036
g72
(dp2037
g99
g100
ssg81
g2027
sg74
(lp2038
S':'
asbag67
(g88
g69
NtRp2039
(dp2040
g72
(dp2041
sg81
g2027
sg74
(lp2042
g67
(g68
g69
NtRp2043
(dp2044
g72
(dp2045
g80
I4
ssg81
g2039
sg74
(lp2046
S"set(['/Users/cyan/Package/GitHub/funback/web2py/applications/welcome/', '/Users/cyan/Package/GitHub/funback/web2py/applications/funback/'])"
p2047
asbasbasbag67
(g83
g69
NtRp2048
(dp2049
g72
(dp2050
sg81
g2023
sg74
(lp2051
g67
(g88
g69
NtRp2052
(dp2053
g72
(dp2054
g92
g93
ssg81
g2048
sg74
(lp2055
g866
asbag67
(g88
g69
NtRp2056
(dp2057
g72
(dp2058
g99
g100
ssg81
g2048
sg74
(lp2059
S':'
asbag67
(g88
g69
NtRp2060
(dp2061
g72
(dp2062
sg81
g2048
sg74
(lp2063
g67
(g68
g69
NtRp2064
(dp2065
g72
(dp2066
g80
I4
ssg81
g2060
sg74
(lp2067
g879
asbasbasbag67
(g83
g69
NtRp2068
(dp2069
g72
(dp2070
sg81
g2023
sg74
(lp2071
g67
(g88
g69
NtRp2072
(dp2073
g72
(dp2074
g92
g93
ssg81
g2068
sg74
(lp2075
g888
asbag67
(g88
g69
NtRp2076
(dp2077
g72
(dp2078
g99
g100
ssg81
g2068
sg74
(lp2079
S':'
asbag67
(g88
g69
NtRp2080
(dp2081
g72
(dp2082
sg81
g2068
sg74
(lp2083
g67
(g68
g69
NtRp2084
(dp2085
g72
(dp2086
g80
I4
ssg81
g2080
sg74
(lp2087
g67
(g76
g69
NtRp2088
(dp2089
g72
(dp2090
g80
I3
ssg81
Nsg74
(lp2091
sbasbasbasbag67
(g83
g69
NtRp2092
(dp2093
g72
(dp2094
sg81
g2023
sg74
(lp2095
g67
(g88
g69
NtRp2096
(dp2097
g72
(dp2098
g92
g93
ssg81
g2092
sg74
(lp2099
g913
asbag67
(g88
g69
NtRp2100
(dp2101
g72
(dp2102
g99
g100
ssg81
g2092
sg74
(lp2103
S':'
asbag67
(g88
g69
NtRp2104
(dp2105
g72
(dp2106
sg81
g2092
sg74
(lp2107
g67
(g68
g69
NtRp2108
(dp2109
g72
(dp2110
g80
I4
ssg81
g2104
sg74
(lp2111
S"<Values at 0x101d3f5a8: {'verbose': False, 'ip': '127.0.0.1', 'shutdown_timeout': 5, 'taskbar': False, 'nocron': False, 'pid_filename': 'httpserver.pid', 'maxthreads': None, 'softcron': False, 'server_name': 'cyan-1.local', 'bpython': False, 'nogui': False, 'port': 8000, 'extcron': False, 'debuglevel': 30, 'test': None, 'folder': '/Users/cyan/Package/GitHub/funback/web2py', 'config': '', 'import_models': False, 'winservice': '', 'shell': None, 'run': '', 'log_filename': 'httpserver.log', 'args': [''], 'socket_timeout': 5, 'ssl_ca_certificate': None, 'scheduler': None, 'profiler_filename': None, 'ssl_private_key': '', 'password': '<ask>', 'request_queue_size': 5, 'ssl_certificate': '', 'cronjob': False, 'numthreads': None, 'quiet': False, 'interfaces': None, 'minthreads': None, 'timeout': 10, 'plain': False, 'nobanner': False}>"
p2112
asbasbasbag67
(g83
g69
NtRp2113
(dp2114
g72
(dp2115
sg81
g2023
sg74
(lp2116
g67
(g88
g69
NtRp2117
(dp2118
g72
(dp2119
g92
g93
ssg81
g2113
sg74
(lp2120
g979
asbag67
(g88
g69
NtRp2121
(dp2122
g72
(dp2123
g99
g100
ssg81
g2113
sg74
(lp2124
S':'
asbag67
(g88
g69
NtRp2125
(dp2126
g72
(dp2127
sg81
g2113
sg74
(lp2128
g67
(g68
g69
NtRp2129
(dp2130
g72
(dp2131
g80
I4
ssg81
g2125
sg74
(lp2132
S'set([])'
p2133
asbasbasbag67
(g83
g69
NtRp2134
(dp2135
g72
(dp2136
sg81
g2023
sg74
(lp2137
g67
(g88
g69
NtRp2138
(dp2139
g72
(dp2140
g92
g93
ssg81
g2134
sg74
(lp2141
g1001
asbag67
(g88
g69
NtRp2142
(dp2143
g72
(dp2144
g99
g100
ssg81
g2134
sg74
(lp2145
S':'
asbag67
(g88
g69
NtRp2146
(dp2147
g72
(dp2148
sg81
g2134
sg74
(lp2149
g67
(g68
g69
NtRp2150
(dp2151
g72
(dp2152
g80
I4
ssg81
g2146
sg74
(lp2153
g110
asbasbasbag67
(g83
g69
NtRp2154
(dp2155
g72
(dp2156
sg81
g2023
sg74
(lp2157
g67
(g88
g69
NtRp2158
(dp2159
g72
(dp2160
g92
g93
ssg81
g2154
sg74
(lp2161
g1022
asbag67
(g88
g69
NtRp2162
(dp2163
g72
(dp2164
g99
g100
ssg81
g2154
sg74
(lp2165
S':'
asbag67
(g88
g69
NtRp2166
(dp2167
g72
(dp2168
sg81
g2154
sg74
(lp2169
g67
(g68
g69
NtRp2170
(dp2171
g72
(dp2172
g80
I4
ssg81
g2166
sg74
(lp2173
g1035
asbasbasbag67
(g83
g69
NtRp2174
(dp2175
g72
(dp2176
sg81
g2023
sg74
(lp2177
g67
(g88
g69
NtRp2178
(dp2179
g72
(dp2180
g92
g93
ssg81
g2174
sg74
(lp2181
g1328
asbag67
(g88
g69
NtRp2182
(dp2183
g72
(dp2184
g99
g100
ssg81
g2174
sg74
(lp2185
S':'
asbag67
(g88
g69
NtRp2186
(dp2187
g72
(dp2188
sg81
g2174
sg74
(lp2189
g67
(g68
g69
NtRp2190
(dp2191
g72
(dp2192
g80
I4
ssg81
g2186
sg74
(lp2193
g110
asbasbasbag67
(g83
g69
NtRp2194
(dp2195
g72
(dp2196
sg81
g2023
sg74
(lp2197
g67
(g88
g69
NtRp2198
(dp2199
g72
(dp2200
g92
g93
ssg81
g2194
sg74
(lp2201
g1349
asbag67
(g88
g69
NtRp2202
(dp2203
g72
(dp2204
g99
g100
ssg81
g2194
sg74
(lp2205
S':'
asbag67
(g88
g69
NtRp2206
(dp2207
g72
(dp2208
sg81
g2194
sg74
(lp2209
g67
(g68
g69
NtRp2210
(dp2211
g72
(dp2212
g80
I4
ssg81
g2206
sg74
(lp2213
g110
asbasbasbag67
(g83
g69
NtRp2214
(dp2215
g72
(dp2216
sg81
g2023
sg74
(lp2217
g67
(g88
g69
NtRp2218
(dp2219
g72
(dp2220
g92
g93
ssg81
g2214
sg74
(lp2221
g1587
asbag67
(g88
g69
NtRp2222
(dp2223
g72
(dp2224
g99
g100
ssg81
g2214
sg74
(lp2225
S':'
asbag67
(g88
g69
NtRp2226
(dp2227
g72
(dp2228
sg81
g2214
sg74
(lp2229
g67
(g68
g69
NtRp2230
(dp2231
g72
(dp2232
g80
I4
ssg81
g2226
sg74
(lp2233
g1600
asbasbasbag67
(g83
g69
NtRp2234
(dp2235
g72
(dp2236
sg81
g2023
sg74
(lp2237
g67
(g88
g69
NtRp2238
(dp2239
g72
(dp2240
g92
g93
ssg81
g2234
sg74
(lp2241
g1630
asbag67
(g88
g69
NtRp2242
(dp2243
g72
(dp2244
g99
g100
ssg81
g2234
sg74
(lp2245
S':'
asbag67
(g88
g69
NtRp2246
(dp2247
g72
(dp2248
sg81
g2234
sg74
(lp2249
g67
(g68
g69
NtRp2250
(dp2251
g72
(dp2252
g80
I4
ssg81
g2246
sg74
(lp2253
g67
(g76
g69
NtRp2254
(dp2255
g72
(dp2256
g80
I3
ssg81
Nsg74
(lp2257
g67
(g83
g69
NtRp2258
(dp2259
g72
(dp2260
sg81
g2254
sg74
(lp2261
g67
(g88
g69
NtRp2262
(dp2263
g72
(dp2264
sg81
g2258
sg74
(lp2265
g67
(g68
g69
NtRp2266
(dp2267
g72
(dp2268
g80
I3
ssg81
g2262
sg74
(lp2269
S'1'
asbasbasbag67
(g83
g69
NtRp2270
(dp2271
g72
(dp2272
sg81
g2254
sg74
(lp2273
g67
(g88
g69
NtRp2274
(dp2275
g72
(dp2276
sg81
g2270
sg74
(lp2277
g67
(g68
g69
NtRp2278
(dp2279
g72
(dp2280
g80
I3
ssg81
g2274
sg74
(lp2281
S'99'
p2282
asbasbasbag67
(g83
g69
NtRp2283
(dp2284
g72
(dp2285
sg81
g2254
sg74
(lp2286
g67
(g88
g69
NtRp2287
(dp2288
g72
(dp2289
sg81
g2283
sg74
(lp2290
g67
(g68
g69
NtRp2291
(dp2292
g72
(dp2293
g80
I3
ssg81
g2287
sg74
(lp2294
S'7'
asbasbasbag67
(g83
g69
NtRp2295
(dp2296
g72
(dp2297
sg81
g2254
sg74
(lp2298
g67
(g88
g69
NtRp2299
(dp2300
g72
(dp2301
sg81
g2295
sg74
(lp2302
g67
(g68
g69
NtRp2303
(dp2304
g72
(dp2305
g80
I3
ssg81
g2299
sg74
(lp2306
S'datetime.datetime(2012, 3, 4, 22, 12, 8)'
p2307
asbasbasbag67
(g83
g69
NtRp2308
(dp2309
g72
(dp2310
sg81
g2254
sg74
(lp2311
g67
(g88
g69
NtRp2312
(dp2313
g72
(dp2314
sg81
g2308
sg74
(lp2315
g67
(g68
g69
NtRp2316
(dp2317
g72
(dp2318
g80
I3
ssg81
g2312
sg74
(lp2319
g1709
asbasbasbasbasbasbasbasbasbasbasbag67
(g83
g69
NtRp2320
(dp2321
g72
(dp2322
sg81
g77
sg74
(lp2323
g67
(g88
g69
NtRp2324
(dp2325
g72
(dp2326
g92
g93
ssg81
g2320
sg74
(lp2327
S'is_https'
p2328
asbag67
(g88
g69
NtRp2329
(dp2330
g72
(dp2331
g99
g100
ssg81
g2320
sg74
(lp2332
S':'
asbag67
(g88
g69
NtRp2333
(dp2334
g72
(dp2335
sg81
g2320
sg74
(lp2336
g67
(g68
g69
NtRp2337
(dp2338
g72
(dp2339
g80
I5
ssg81
g2333
sg74
(lp2340
g110
asbasbasbag67
(g83
g69
NtRp2341
(dp2342
g72
(dp2343
sg81
g77
sg74
(lp2344
g67
(g88
g69
NtRp2345
(dp2346
g72
(dp2347
g92
g93
ssg81
g2341
sg74
(lp2348
S'is_local'
p2349
asbag67
(g88
g69
NtRp2350
(dp2351
g72
(dp2352
g99
g100
ssg81
g2341
sg74
(lp2353
S':'
asbag67
(g88
g69
NtRp2354
(dp2355
g72
(dp2356
sg81
g2341
sg74
(lp2357
g67
(g68
g69
NtRp2358
(dp2359
g72
(dp2360
g80
I5
ssg81
g2354
sg74
(lp2361
g1818
asbasbasbag67
(g83
g69
NtRp2362
(dp2363
g72
(dp2364
sg81
g77
sg74
(lp2365
g67
(g88
g69
NtRp2366
(dp2367
g72
(dp2368
g92
g93
ssg81
g2362
sg74
(lp2369
S'is_restful'
p2370
asbag67
(g88
g69
NtRp2371
(dp2372
g72
(dp2373
g99
g100
ssg81
g2362
sg74
(lp2374
S':'
asbag67
(g88
g69
NtRp2375
(dp2376
g72
(dp2377
sg81
g2362
sg74
(lp2378
g67
(g68
g69
NtRp2379
(dp2380
g72
(dp2381
g80
I5
ssg81
g2375
sg74
(lp2382
g110
asbasbasbag67
(g83
g69
NtRp2383
(dp2384
g72
(dp2385
sg81
g77
sg74
(lp2386
g67
(g88
g69
NtRp2387
(dp2388
g72
(dp2389
g92
g93
ssg81
g2383
sg74
(lp2390
S'now'
p2391
asbag67
(g88
g69
NtRp2392
(dp2393
g72
(dp2394
g99
g100
ssg81
g2383
sg74
(lp2395
S':'
asbag67
(g88
g69
NtRp2396
(dp2397
g72
(dp2398
sg81
g2383
sg74
(lp2399
g67
(g68
g69
NtRp2400
(dp2401
g72
(dp2402
g80
I5
ssg81
g2396
sg74
(lp2403
S'datetime.datetime(2012, 4, 17, 13, 55, 6, 946937)'
p2404
asbasbasbag67
(g83
g69
NtRp2405
(dp2406
g72
(dp2407
sg81
g77
sg74
(lp2408
g67
(g88
g69
NtRp2409
(dp2410
g72
(dp2411
g92
g93
ssg81
g2405
sg74
(lp2412
S'post_vars'
p2413
asbag67
(g88
g69
NtRp2414
(dp2415
g72
(dp2416
g99
g100
ssg81
g2405
sg74
(lp2417
S':'
asbag67
(g88
g69
NtRp2418
(dp2419
g72
(dp2420
sg81
g2405
sg74
(lp2421
g67
(g68
g69
NtRp2422
(dp2423
g72
(dp2424
g80
I5
ssg81
g2418
sg74
(lp2425
g67
(g76
g69
NtRp2426
(dp2427
g72
(dp2428
g80
I4
ssg81
Nsg74
(lp2429
g67
(g83
g69
NtRp2430
(dp2431
g72
(dp2432
sg81
g2426
sg74
(lp2433
g67
(g88
g69
NtRp2434
(dp2435
g72
(dp2436
g92
g93
ssg81
g2430
sg74
(lp2437
S'email'
p2438
asbag67
(g88
g69
NtRp2439
(dp2440
g72
(dp2441
g99
g100
ssg81
g2430
sg74
(lp2442
S':'
asbag67
(g88
g69
NtRp2443
(dp2444
g72
(dp2445
sg81
g2430
sg74
(lp2446
g67
(g68
g69
NtRp2447
(dp2448
g72
(dp2449
g80
I4
ssg81
g2443
sg74
(lp2450
S'chang.yan@balliol.ox.ac.uk'
p2451
asbasbasbag67
(g83
g69
NtRp2452
(dp2453
g72
(dp2454
sg81
g2426
sg74
(lp2455
g67
(g88
g69
NtRp2456
(dp2457
g72
(dp2458
g92
g93
ssg81
g2452
sg74
(lp2459
S'password'
p2460
asbag67
(g88
g69
NtRp2461
(dp2462
g72
(dp2463
g99
g100
ssg81
g2452
sg74
(lp2464
S':'
asbag67
(g88
g69
NtRp2465
(dp2466
g72
(dp2467
sg81
g2452
sg74
(lp2468
g67
(g68
g69
NtRp2469
(dp2470
g72
(dp2471
g80
I4
ssg81
g2465
sg74
(lp2472
S'opennow'
p2473
asbasbasbag67
(g83
g69
NtRp2474
(dp2475
g72
(dp2476
sg81
g2426
sg74
(lp2477
g67
(g88
g69
NtRp2478
(dp2479
g72
(dp2480
g92
g93
ssg81
g2474
sg74
(lp2481
S'password_two'
p2482
asbag67
(g88
g69
NtRp2483
(dp2484
g72
(dp2485
g99
g100
ssg81
g2474
sg74
(lp2486
S':'
asbag67
(g88
g69
NtRp2487
(dp2488
g72
(dp2489
sg81
g2474
sg74
(lp2490
g67
(g68
g69
NtRp2491
(dp2492
g72
(dp2493
g80
I4
ssg81
g2487
sg74
(lp2494
S'opennow'
p2495
asbasbasbasbasbasbasbag67
(g83
g69
NtRp2496
(dp2497
g72
(dp2498
sg81
g77
sg74
(lp2499
g67
(g88
g69
NtRp2500
(dp2501
g72
(dp2502
g92
g93
ssg81
g2496
sg74
(lp2503
S'url'
p2504
asbag67
(g88
g69
NtRp2505
(dp2506
g72
(dp2507
g99
g100
ssg81
g2496
sg74
(lp2508
S':'
asbag67
(g88
g69
NtRp2509
(dp2510
g72
(dp2511
sg81
g2496
sg74
(lp2512
g67
(g68
g69
NtRp2513
(dp2514
g72
(dp2515
g80
I5
ssg81
g2509
sg74
(lp2516
S'/funback/account/register'
p2517
asbasbasbag67
(g83
g69
NtRp2518
(dp2519
g72
(dp2520
sg81
g77
sg74
(lp2521
g67
(g88
g69
NtRp2522
(dp2523
g72
(dp2524
g92
g93
ssg81
g2518
sg74
(lp2525
S'utcnow'
p2526
asbag67
(g88
g69
NtRp2527
(dp2528
g72
(dp2529
g99
g100
ssg81
g2518
sg74
(lp2530
S':'
asbag67
(g88
g69
NtRp2531
(dp2532
g72
(dp2533
sg81
g2518
sg74
(lp2534
g67
(g68
g69
NtRp2535
(dp2536
g72
(dp2537
g80
I5
ssg81
g2531
sg74
(lp2538
S'datetime.datetime(2012, 4, 17, 17, 55, 6, 946949)'
p2539
asbasbasbag67
(g83
g69
NtRp2540
(dp2541
g72
(dp2542
sg81
g77
sg74
(lp2543
g67
(g88
g69
NtRp2544
(dp2545
g72
(dp2546
g92
g93
ssg81
g2540
sg74
(lp2547
S'uuid'
p2548
asbag67
(g88
g69
NtRp2549
(dp2550
g72
(dp2551
g99
g100
ssg81
g2540
sg74
(lp2552
S':'
asbag67
(g88
g69
NtRp2553
(dp2554
g72
(dp2555
sg81
g2540
sg74
(lp2556
g67
(g68
g69
NtRp2557
(dp2558
g72
(dp2559
g80
I5
ssg81
g2553
sg74
(lp2560
S'funback/127.0.0.1.2012-04-17.13-55-06.9d98d5e1-ec3c-4736-99cf-ce07ba59459c'
p2561
asbasbasbag67
(g83
g69
NtRp2562
(dp2563
g72
(dp2564
sg81
g77
sg74
(lp2565
g67
(g88
g69
NtRp2566
(dp2567
g72
(dp2568
g92
g93
ssg81
g2562
sg74
(lp2569
S'vars'
p2570
asbag67
(g88
g69
NtRp2571
(dp2572
g72
(dp2573
g99
g100
ssg81
g2562
sg74
(lp2574
S':'
asbag67
(g88
g69
NtRp2575
(dp2576
g72
(dp2577
sg81
g2562
sg74
(lp2578
g67
(g68
g69
NtRp2579
(dp2580
g72
(dp2581
g80
I5
ssg81
g2575
sg74
(lp2582
g67
(g76
g69
NtRp2583
(dp2584
g72
(dp2585
g80
I4
ssg81
Nsg74
(lp2586
g67
(g83
g69
NtRp2587
(dp2588
g72
(dp2589
sg81
g2583
sg74
(lp2590
g67
(g88
g69
NtRp2591
(dp2592
g72
(dp2593
g92
g93
ssg81
g2587
sg74
(lp2594
g2438
asbag67
(g88
g69
NtRp2595
(dp2596
g72
(dp2597
g99
g100
ssg81
g2587
sg74
(lp2598
S':'
asbag67
(g88
g69
NtRp2599
(dp2600
g72
(dp2601
sg81
g2587
sg74
(lp2602
g67
(g68
g69
NtRp2603
(dp2604
g72
(dp2605
g80
I4
ssg81
g2599
sg74
(lp2606
g2451
asbasbasbag67
(g83
g69
NtRp2607
(dp2608
g72
(dp2609
sg81
g2583
sg74
(lp2610
g67
(g88
g69
NtRp2611
(dp2612
g72
(dp2613
g92
g93
ssg81
g2607
sg74
(lp2614
g2460
asbag67
(g88
g69
NtRp2615
(dp2616
g72
(dp2617
g99
g100
ssg81
g2607
sg74
(lp2618
S':'
asbag67
(g88
g69
NtRp2619
(dp2620
g72
(dp2621
sg81
g2607
sg74
(lp2622
g67
(g68
g69
NtRp2623
(dp2624
g72
(dp2625
g80
I4
ssg81
g2619
sg74
(lp2626
g2473
asbasbasbag67
(g83
g69
NtRp2627
(dp2628
g72
(dp2629
sg81
g2583
sg74
(lp2630
g67
(g88
g69
NtRp2631
(dp2632
g72
(dp2633
g92
g93
ssg81
g2627
sg74
(lp2634
g2482
asbag67
(g88
g69
NtRp2635
(dp2636
g72
(dp2637
g99
g100
ssg81
g2627
sg74
(lp2638
S':'
asbag67
(g88
g69
NtRp2639
(dp2640
g72
(dp2641
sg81
g2627
sg74
(lp2642
g67
(g68
g69
NtRp2643
(dp2644
g72
(dp2645
g80
I4
ssg81
g2639
sg74
(lp2646
g2495
asbasbasbasbasbasbasbag67
(g83
g69
NtRp2647
(dp2648
g72
(dp2649
sg81
g77
sg74
(lp2650
g67
(g88
g69
NtRp2651
(dp2652
g72
(dp2653
g92
g93
ssg81
g2647
sg74
(lp2654
S'wsgi'
p2655
asbag67
(g88
g69
NtRp2656
(dp2657
g72
(dp2658
g99
g100
ssg81
g2647
sg74
(lp2659
S':'
asbag67
(g88
g69
NtRp2660
(dp2661
g72
(dp2662
sg81
g2647
sg74
(lp2663
g67
(g68
g69
NtRp2664
(dp2665
g72
(dp2666
g80
I5
ssg81
g2660
sg74
(lp2667
g67
(g76
g69
NtRp2668
(dp2669
g72
(dp2670
g80
I4
ssg81
Nsg74
(lp2671
g67
(g83
g69
NtRp2672
(dp2673
g72
(dp2674
sg81
g2668
sg74
(lp2675
g67
(g88
g69
NtRp2676
(dp2677
g72
(dp2678
g92
g93
ssg81
g2672
sg74
(lp2679
S'environ'
p2680
asbag67
(g88
g69
NtRp2681
(dp2682
g72
(dp2683
g99
g100
ssg81
g2672
sg74
(lp2684
S':'
asbag67
(g88
g69
NtRp2685
(dp2686
g72
(dp2687
sg81
g2672
sg74
(lp2688
g67
(g68
g69
NtRp2689
(dp2690
g72
(dp2691
g80
I4
ssg81
g2685
sg74
(lp2692
g67
(g76
g69
NtRp2693
(dp2694
g72
(dp2695
g80
I3
ssg81
Nsg74
(lp2696
g67
(g83
g69
NtRp2697
(dp2698
g72
(dp2699
sg81
g2693
sg74
(lp2700
g67
(g88
g69
NtRp2701
(dp2702
g72
(dp2703
g92
g93
ssg81
g2697
sg74
(lp2704
S'CONTENT_LENGTH'
p2705
asbag67
(g88
g69
NtRp2706
(dp2707
g72
(dp2708
g99
g100
ssg81
g2697
sg74
(lp2709
S':'
asbag67
(g88
g69
NtRp2710
(dp2711
g72
(dp2712
sg81
g2697
sg74
(lp2713
g67
(g68
g69
NtRp2714
(dp2715
g72
(dp2716
g80
I3
ssg81
g2710
sg74
(lp2717
g948
asbasbasbag67
(g83
g69
NtRp2718
(dp2719
g72
(dp2720
sg81
g2693
sg74
(lp2721
g67
(g88
g69
NtRp2722
(dp2723
g72
(dp2724
g92
g93
ssg81
g2718
sg74
(lp2725
S'CONTENT_TYPE'
p2726
asbag67
(g88
g69
NtRp2727
(dp2728
g72
(dp2729
g99
g100
ssg81
g2718
sg74
(lp2730
S':'
asbag67
(g88
g69
NtRp2731
(dp2732
g72
(dp2733
sg81
g2718
sg74
(lp2734
g67
(g68
g69
NtRp2735
(dp2736
g72
(dp2737
g80
I3
ssg81
g2731
sg74
(lp2738
g970
asbasbasbag67
(g83
g69
NtRp2739
(dp2740
g72
(dp2741
sg81
g2693
sg74
(lp2742
g67
(g88
g69
NtRp2743
(dp2744
g72
(dp2745
g92
g93
ssg81
g2739
sg74
(lp2746
S'HTTP_ACCEPT'
p2747
asbag67
(g88
g69
NtRp2748
(dp2749
g72
(dp2750
g99
g100
ssg81
g2739
sg74
(lp2751
S':'
asbag67
(g88
g69
NtRp2752
(dp2753
g72
(dp2754
sg81
g2739
sg74
(lp2755
g67
(g68
g69
NtRp2756
(dp2757
g72
(dp2758
g80
I3
ssg81
g2752
sg74
(lp2759
g1057
asbasbasbag67
(g83
g69
NtRp2760
(dp2761
g72
(dp2762
sg81
g2693
sg74
(lp2763
g67
(g88
g69
NtRp2764
(dp2765
g72
(dp2766
g92
g93
ssg81
g2760
sg74
(lp2767
S'HTTP_ACCEPT_CHARSET'
p2768
asbag67
(g88
g69
NtRp2769
(dp2770
g72
(dp2771
g99
g100
ssg81
g2760
sg74
(lp2772
S':'
asbag67
(g88
g69
NtRp2773
(dp2774
g72
(dp2775
sg81
g2760
sg74
(lp2776
g67
(g68
g69
NtRp2777
(dp2778
g72
(dp2779
g80
I3
ssg81
g2773
sg74
(lp2780
g1079
asbasbasbag67
(g83
g69
NtRp2781
(dp2782
g72
(dp2783
sg81
g2693
sg74
(lp2784
g67
(g88
g69
NtRp2785
(dp2786
g72
(dp2787
g92
g93
ssg81
g2781
sg74
(lp2788
S'HTTP_ACCEPT_ENCODING'
p2789
asbag67
(g88
g69
NtRp2790
(dp2791
g72
(dp2792
g99
g100
ssg81
g2781
sg74
(lp2793
S':'
asbag67
(g88
g69
NtRp2794
(dp2795
g72
(dp2796
sg81
g2781
sg74
(lp2797
g67
(g68
g69
NtRp2798
(dp2799
g72
(dp2800
g80
I3
ssg81
g2794
sg74
(lp2801
g1101
asbasbasbag67
(g83
g69
NtRp2802
(dp2803
g72
(dp2804
sg81
g2693
sg74
(lp2805
g67
(g88
g69
NtRp2806
(dp2807
g72
(dp2808
g92
g93
ssg81
g2802
sg74
(lp2809
S'HTTP_ACCEPT_LANGUAGE'
p2810
asbag67
(g88
g69
NtRp2811
(dp2812
g72
(dp2813
g99
g100
ssg81
g2802
sg74
(lp2814
S':'
asbag67
(g88
g69
NtRp2815
(dp2816
g72
(dp2817
sg81
g2802
sg74
(lp2818
g67
(g68
g69
NtRp2819
(dp2820
g72
(dp2821
g80
I3
ssg81
g2815
sg74
(lp2822
g1123
asbasbasbag67
(g83
g69
NtRp2823
(dp2824
g72
(dp2825
sg81
g2693
sg74
(lp2826
g67
(g88
g69
NtRp2827
(dp2828
g72
(dp2829
g92
g93
ssg81
g2823
sg74
(lp2830
S'HTTP_CACHE_CONTROL'
p2831
asbag67
(g88
g69
NtRp2832
(dp2833
g72
(dp2834
g99
g100
ssg81
g2823
sg74
(lp2835
S':'
asbag67
(g88
g69
NtRp2836
(dp2837
g72
(dp2838
sg81
g2823
sg74
(lp2839
g67
(g68
g69
NtRp2840
(dp2841
g72
(dp2842
g80
I3
ssg81
g2836
sg74
(lp2843
g1145
asbasbasbag67
(g83
g69
NtRp2844
(dp2845
g72
(dp2846
sg81
g2693
sg74
(lp2847
g67
(g88
g69
NtRp2848
(dp2849
g72
(dp2850
g92
g93
ssg81
g2844
sg74
(lp2851
S'HTTP_CONNECTION'
p2852
asbag67
(g88
g69
NtRp2853
(dp2854
g72
(dp2855
g99
g100
ssg81
g2844
sg74
(lp2856
S':'
asbag67
(g88
g69
NtRp2857
(dp2858
g72
(dp2859
sg81
g2844
sg74
(lp2860
g67
(g68
g69
NtRp2861
(dp2862
g72
(dp2863
g80
I3
ssg81
g2857
sg74
(lp2864
g1167
asbasbasbag67
(g83
g69
NtRp2865
(dp2866
g72
(dp2867
sg81
g2693
sg74
(lp2868
g67
(g88
g69
NtRp2869
(dp2870
g72
(dp2871
g92
g93
ssg81
g2865
sg74
(lp2872
S'HTTP_CONTENT_LENGTH'
p2873
asbag67
(g88
g69
NtRp2874
(dp2875
g72
(dp2876
g99
g100
ssg81
g2865
sg74
(lp2877
S':'
asbag67
(g88
g69
NtRp2878
(dp2879
g72
(dp2880
sg81
g2865
sg74
(lp2881
g67
(g68
g69
NtRp2882
(dp2883
g72
(dp2884
g80
I3
ssg81
g2878
sg74
(lp2885
g948
asbasbasbag67
(g83
g69
NtRp2886
(dp2887
g72
(dp2888
sg81
g2693
sg74
(lp2889
g67
(g88
g69
NtRp2890
(dp2891
g72
(dp2892
g92
g93
ssg81
g2886
sg74
(lp2893
S'HTTP_CONTENT_TYPE'
p2894
asbag67
(g88
g69
NtRp2895
(dp2896
g72
(dp2897
g99
g100
ssg81
g2886
sg74
(lp2898
S':'
asbag67
(g88
g69
NtRp2899
(dp2900
g72
(dp2901
sg81
g2886
sg74
(lp2902
g67
(g68
g69
NtRp2903
(dp2904
g72
(dp2905
g80
I3
ssg81
g2899
sg74
(lp2906
g970
asbasbasbag67
(g83
g69
NtRp2907
(dp2908
g72
(dp2909
sg81
g2693
sg74
(lp2910
g67
(g88
g69
NtRp2911
(dp2912
g72
(dp2913
g92
g93
ssg81
g2907
sg74
(lp2914
S'HTTP_COOKIE'
p2915
asbag67
(g88
g69
NtRp2916
(dp2917
g72
(dp2918
g99
g100
ssg81
g2907
sg74
(lp2919
S':'
asbag67
(g88
g69
NtRp2920
(dp2921
g72
(dp2922
sg81
g2907
sg74
(lp2923
g67
(g68
g69
NtRp2924
(dp2925
g72
(dp2926
g80
I3
ssg81
g2920
sg74
(lp2927
g1231
asbasbasbag67
(g83
g69
NtRp2928
(dp2929
g72
(dp2930
sg81
g2693
sg74
(lp2931
g67
(g88
g69
NtRp2932
(dp2933
g72
(dp2934
g92
g93
ssg81
g2928
sg74
(lp2935
S'HTTP_HOST'
p2936
asbag67
(g88
g69
NtRp2937
(dp2938
g72
(dp2939
g99
g100
ssg81
g2928
sg74
(lp2940
S':'
asbag67
(g88
g69
NtRp2941
(dp2942
g72
(dp2943
sg81
g2928
sg74
(lp2944
g67
(g68
g69
NtRp2945
(dp2946
g72
(dp2947
g80
I3
ssg81
g2941
sg74
(lp2948
g1253
asbasbasbag67
(g83
g69
NtRp2949
(dp2950
g72
(dp2951
sg81
g2693
sg74
(lp2952
g67
(g88
g69
NtRp2953
(dp2954
g72
(dp2955
g92
g93
ssg81
g2949
sg74
(lp2956
S'HTTP_ORIGIN'
p2957
asbag67
(g88
g69
NtRp2958
(dp2959
g72
(dp2960
g99
g100
ssg81
g2949
sg74
(lp2961
S':'
asbag67
(g88
g69
NtRp2962
(dp2963
g72
(dp2964
sg81
g2949
sg74
(lp2965
g67
(g68
g69
NtRp2966
(dp2967
g72
(dp2968
g80
I3
ssg81
g2962
sg74
(lp2969
g1275
asbasbasbag67
(g83
g69
NtRp2970
(dp2971
g72
(dp2972
sg81
g2693
sg74
(lp2973
g67
(g88
g69
NtRp2974
(dp2975
g72
(dp2976
g92
g93
ssg81
g2970
sg74
(lp2977
S'HTTP_REFERER'
p2978
asbag67
(g88
g69
NtRp2979
(dp2980
g72
(dp2981
g99
g100
ssg81
g2970
sg74
(lp2982
S':'
asbag67
(g88
g69
NtRp2983
(dp2984
g72
(dp2985
sg81
g2970
sg74
(lp2986
g67
(g68
g69
NtRp2987
(dp2988
g72
(dp2989
g80
I3
ssg81
g2983
sg74
(lp2990
g1297
asbasbasbag67
(g83
g69
NtRp2991
(dp2992
g72
(dp2993
sg81
g2693
sg74
(lp2994
g67
(g88
g69
NtRp2995
(dp2996
g72
(dp2997
g92
g93
ssg81
g2991
sg74
(lp2998
S'HTTP_USER_AGENT'
p2999
asbag67
(g88
g69
NtRp3000
(dp3001
g72
(dp3002
g99
g100
ssg81
g2991
sg74
(lp3003
S':'
asbag67
(g88
g69
NtRp3004
(dp3005
g72
(dp3006
sg81
g2991
sg74
(lp3007
g67
(g68
g69
NtRp3008
(dp3009
g72
(dp3010
g80
I3
ssg81
g3004
sg74
(lp3011
g1319
asbasbasbag67
(g83
g69
NtRp3012
(dp3013
g72
(dp3014
sg81
g2693
sg74
(lp3015
g67
(g88
g69
NtRp3016
(dp3017
g72
(dp3018
g92
g93
ssg81
g3012
sg74
(lp3019
S'PATH_INFO'
p3020
asbag67
(g88
g69
NtRp3021
(dp3022
g72
(dp3023
g99
g100
ssg81
g3012
sg74
(lp3024
S':'
asbag67
(g88
g69
NtRp3025
(dp3026
g72
(dp3027
sg81
g3012
sg74
(lp3028
g67
(g68
g69
NtRp3029
(dp3030
g72
(dp3031
g80
I3
ssg81
g3025
sg74
(lp3032
g1383
asbasbasbag67
(g83
g69
NtRp3033
(dp3034
g72
(dp3035
sg81
g2693
sg74
(lp3036
g67
(g88
g69
NtRp3037
(dp3038
g72
(dp3039
g92
g93
ssg81
g3033
sg74
(lp3040
S'QUERY_STRING'
p3041
asbag67
(g88
g69
NtRp3042
(dp3043
g72
(dp3044
g99
g100
ssg81
g3033
sg74
(lp3045
S':'
asbag67
(g88
g69
NtRp3046
(dp3047
g72
(dp3048
sg81
g3033
sg74
(lp3049
g67
(g68
g69
NtRp3050
(dp3051
g72
(dp3052
g80
I3
ssg81
g3046
sg74
(lp3053
S''
asbasbasbag67
(g83
g69
NtRp3054
(dp3055
g72
(dp3056
sg81
g2693
sg74
(lp3057
g67
(g88
g69
NtRp3058
(dp3059
g72
(dp3060
g92
g93
ssg81
g3054
sg74
(lp3061
S'REMOTE_ADDR'
p3062
asbag67
(g88
g69
NtRp3063
(dp3064
g72
(dp3065
g99
g100
ssg81
g3054
sg74
(lp3066
S':'
asbag67
(g88
g69
NtRp3067
(dp3068
g72
(dp3069
sg81
g3054
sg74
(lp3070
g67
(g68
g69
NtRp3071
(dp3072
g72
(dp3073
g80
I3
ssg81
g3067
sg74
(lp3074
g200
asbasbasbag67
(g83
g69
NtRp3075
(dp3076
g72
(dp3077
sg81
g2693
sg74
(lp3078
g67
(g88
g69
NtRp3079
(dp3080
g72
(dp3081
g92
g93
ssg81
g3075
sg74
(lp3082
S'REMOTE_PORT'
p3083
asbag67
(g88
g69
NtRp3084
(dp3085
g72
(dp3086
g99
g100
ssg81
g3075
sg74
(lp3087
S':'
asbag67
(g88
g69
NtRp3088
(dp3089
g72
(dp3090
sg81
g3075
sg74
(lp3091
g67
(g68
g69
NtRp3092
(dp3093
g72
(dp3094
g80
I3
ssg81
g3088
sg74
(lp3095
g1447
asbasbasbag67
(g83
g69
NtRp3096
(dp3097
g72
(dp3098
sg81
g2693
sg74
(lp3099
g67
(g88
g69
NtRp3100
(dp3101
g72
(dp3102
g92
g93
ssg81
g3096
sg74
(lp3103
S'REQUEST_METHOD'
p3104
asbag67
(g88
g69
NtRp3105
(dp3106
g72
(dp3107
g99
g100
ssg81
g3096
sg74
(lp3108
S':'
asbag67
(g88
g69
NtRp3109
(dp3110
g72
(dp3111
sg81
g3096
sg74
(lp3112
g67
(g68
g69
NtRp3113
(dp3114
g72
(dp3115
g80
I3
ssg81
g3109
sg74
(lp3116
g1469
asbasbasbag67
(g83
g69
NtRp3117
(dp3118
g72
(dp3119
sg81
g2693
sg74
(lp3120
g67
(g88
g69
NtRp3121
(dp3122
g72
(dp3123
g92
g93
ssg81
g3117
sg74
(lp3124
S'SCRIPT_NAME'
p3125
asbag67
(g88
g69
NtRp3126
(dp3127
g72
(dp3128
g99
g100
ssg81
g3117
sg74
(lp3129
S':'
asbag67
(g88
g69
NtRp3130
(dp3131
g72
(dp3132
sg81
g3117
sg74
(lp3133
g67
(g68
g69
NtRp3134
(dp3135
g72
(dp3136
g80
I3
ssg81
g3130
sg74
(lp3137
S''
asbasbasbag67
(g83
g69
NtRp3138
(dp3139
g72
(dp3140
sg81
g2693
sg74
(lp3141
g67
(g88
g69
NtRp3142
(dp3143
g72
(dp3144
g92
g93
ssg81
g3138
sg74
(lp3145
S'SERVER_NAME'
p3146
asbag67
(g88
g69
NtRp3147
(dp3148
g72
(dp3149
g99
g100
ssg81
g3138
sg74
(lp3150
S':'
asbag67
(g88
g69
NtRp3151
(dp3152
g72
(dp3153
sg81
g3138
sg74
(lp3154
g67
(g68
g69
NtRp3155
(dp3156
g72
(dp3157
g80
I3
ssg81
g3151
sg74
(lp3158
g1512
asbasbasbag67
(g83
g69
NtRp3159
(dp3160
g72
(dp3161
sg81
g2693
sg74
(lp3162
g67
(g88
g69
NtRp3163
(dp3164
g72
(dp3165
g92
g93
ssg81
g3159
sg74
(lp3166
S'SERVER_PORT'
p3167
asbag67
(g88
g69
NtRp3168
(dp3169
g72
(dp3170
g99
g100
ssg81
g3159
sg74
(lp3171
S':'
asbag67
(g88
g69
NtRp3172
(dp3173
g72
(dp3174
sg81
g3159
sg74
(lp3175
g67
(g68
g69
NtRp3176
(dp3177
g72
(dp3178
g80
I3
ssg81
g3172
sg74
(lp3179
g1534
asbasbasbag67
(g83
g69
NtRp3180
(dp3181
g72
(dp3182
sg81
g2693
sg74
(lp3183
g67
(g88
g69
NtRp3184
(dp3185
g72
(dp3186
g92
g93
ssg81
g3180
sg74
(lp3187
S'SERVER_PROTOCOL'
p3188
asbag67
(g88
g69
NtRp3189
(dp3190
g72
(dp3191
g99
g100
ssg81
g3180
sg74
(lp3192
S':'
asbag67
(g88
g69
NtRp3193
(dp3194
g72
(dp3195
sg81
g3180
sg74
(lp3196
g67
(g68
g69
NtRp3197
(dp3198
g72
(dp3199
g80
I3
ssg81
g3193
sg74
(lp3200
g1556
asbasbasbag67
(g83
g69
NtRp3201
(dp3202
g72
(dp3203
sg81
g2693
sg74
(lp3204
g67
(g88
g69
NtRp3205
(dp3206
g72
(dp3207
g92
g93
ssg81
g3201
sg74
(lp3208
S'SERVER_SOFTWARE'
p3209
asbag67
(g88
g69
NtRp3210
(dp3211
g72
(dp3212
g99
g100
ssg81
g3201
sg74
(lp3213
S':'
asbag67
(g88
g69
NtRp3214
(dp3215
g72
(dp3216
sg81
g3201
sg74
(lp3217
g67
(g68
g69
NtRp3218
(dp3219
g72
(dp3220
g80
I3
ssg81
g3214
sg74
(lp3221
g1578
asbasbasbag67
(g83
g69
NtRp3222
(dp3223
g72
(dp3224
sg81
g2693
sg74
(lp3225
g67
(g88
g69
NtRp3226
(dp3227
g72
(dp3228
g92
g93
ssg81
g3222
sg74
(lp3229
S'wsgi.errors'
p3230
asbag67
(g88
g69
NtRp3231
(dp3232
g72
(dp3233
g99
g100
ssg81
g3222
sg74
(lp3234
S':'
asbag67
(g88
g69
NtRp3235
(dp3236
g72
(dp3237
sg81
g3222
sg74
(lp3238
g67
(g68
g69
NtRp3239
(dp3240
g72
(dp3241
g80
I3
ssg81
g3235
sg74
(lp3242
S"<open file '<stderr>', mode 'w' at 0x100283270>"
p3243
asbasbasbag67
(g83
g69
NtRp3244
(dp3245
g72
(dp3246
sg81
g2693
sg74
(lp3247
g67
(g88
g69
NtRp3248
(dp3249
g72
(dp3250
g92
g93
ssg81
g3244
sg74
(lp3251
S'wsgi.file_wrapper'
p3252
asbag67
(g88
g69
NtRp3253
(dp3254
g72
(dp3255
g99
g100
ssg81
g3244
sg74
(lp3256
S':'
asbag67
(g88
g69
NtRp3257
(dp3258
g72
(dp3259
sg81
g3244
sg74
(lp3260
g67
(g68
g69
NtRp3261
(dp3262
g72
(dp3263
g80
I3
ssg81
g3257
sg74
(lp3264
S'<class wsgiref.util.FileWrapper at 0x101b468d8>'
p3265
asbasbasbag67
(g83
g69
NtRp3266
(dp3267
g72
(dp3268
sg81
g2693
sg74
(lp3269
g67
(g88
g69
NtRp3270
(dp3271
g72
(dp3272
g92
g93
ssg81
g3266
sg74
(lp3273
S'wsgi.input'
p3274
asbag67
(g88
g69
NtRp3275
(dp3276
g72
(dp3277
g99
g100
ssg81
g3266
sg74
(lp3278
S':'
asbag67
(g88
g69
NtRp3279
(dp3280
g72
(dp3281
sg81
g3266
sg74
(lp3282
g67
(g68
g69
NtRp3283
(dp3284
g72
(dp3285
g80
I3
ssg81
g3279
sg74
(lp3286
S"<open file '<fdopen>', mode 'w+b' at 0x101d1a1e0>"
p3287
asbasbasbag67
(g83
g69
NtRp3288
(dp3289
g72
(dp3290
sg81
g2693
sg74
(lp3291
g67
(g88
g69
NtRp3292
(dp3293
g72
(dp3294
g92
g93
ssg81
g3288
sg74
(lp3295
S'wsgi.multiprocess'
p3296
asbag67
(g88
g69
NtRp3297
(dp3298
g72
(dp3299
g99
g100
ssg81
g3288
sg74
(lp3300
S':'
asbag67
(g88
g69
NtRp3301
(dp3302
g72
(dp3303
sg81
g3288
sg74
(lp3304
g67
(g68
g69
NtRp3305
(dp3306
g72
(dp3307
g80
I3
ssg81
g3301
sg74
(lp3308
g110
asbasbasbag67
(g83
g69
NtRp3309
(dp3310
g72
(dp3311
sg81
g2693
sg74
(lp3312
g67
(g88
g69
NtRp3313
(dp3314
g72
(dp3315
g92
g93
ssg81
g3309
sg74
(lp3316
S'wsgi.multithread'
p3317
asbag67
(g88
g69
NtRp3318
(dp3319
g72
(dp3320
g99
g100
ssg81
g3309
sg74
(lp3321
S':'
asbag67
(g88
g69
NtRp3322
(dp3323
g72
(dp3324
sg81
g3309
sg74
(lp3325
g67
(g68
g69
NtRp3326
(dp3327
g72
(dp3328
g80
I3
ssg81
g3322
sg74
(lp3329
g1818
asbasbasbag67
(g83
g69
NtRp3330
(dp3331
g72
(dp3332
sg81
g2693
sg74
(lp3333
g67
(g88
g69
NtRp3334
(dp3335
g72
(dp3336
g92
g93
ssg81
g3330
sg74
(lp3337
S'wsgi.run_once'
p3338
asbag67
(g88
g69
NtRp3339
(dp3340
g72
(dp3341
g99
g100
ssg81
g3330
sg74
(lp3342
S':'
asbag67
(g88
g69
NtRp3343
(dp3344
g72
(dp3345
sg81
g3330
sg74
(lp3346
g67
(g68
g69
NtRp3347
(dp3348
g72
(dp3349
g80
I3
ssg81
g3343
sg74
(lp3350
g110
asbasbasbag67
(g83
g69
NtRp3351
(dp3352
g72
(dp3353
sg81
g2693
sg74
(lp3354
g67
(g88
g69
NtRp3355
(dp3356
g72
(dp3357
g92
g93
ssg81
g3351
sg74
(lp3358
S'wsgi.url_scheme'
p3359
asbag67
(g88
g69
NtRp3360
(dp3361
g72
(dp3362
g99
g100
ssg81
g3351
sg74
(lp3363
S':'
asbag67
(g88
g69
NtRp3364
(dp3365
g72
(dp3366
sg81
g3351
sg74
(lp3367
g67
(g68
g69
NtRp3368
(dp3369
g72
(dp3370
g80
I3
ssg81
g3364
sg74
(lp3371
g1861
asbasbasbag67
(g83
g69
NtRp3372
(dp3373
g72
(dp3374
sg81
g2693
sg74
(lp3375
g67
(g88
g69
NtRp3376
(dp3377
g72
(dp3378
g92
g93
ssg81
g3372
sg74
(lp3379
S'wsgi.version'
p3380
asbag67
(g88
g69
NtRp3381
(dp3382
g72
(dp3383
g99
g100
ssg81
g3372
sg74
(lp3384
S':'
asbag67
(g88
g69
NtRp3385
(dp3386
g72
(dp3387
sg81
g3372
sg74
(lp3388
g67
(g68
g69
NtRp3389
(dp3390
g72
(dp3391
g80
I3
ssg81
g3385
sg74
(lp3392
S'1'
asbasbasbasbasbasbasbasbasbasbasbasbasbsS'frames'
p3393
(lp3394
(dp3395
S'file'
p3396
S'/Users/cyan/Package/GitHub/funback/web2py/gluon/restricted.py'
p3397
sS'dump'
p3398
(dp3399
S'environment'
p3400
S"{'A': <class 'gluon.html.A'>, 'Auth': <class 'gluon.tools.Auth'>, 'B': <class 'gluon.html.B'>, 'BEAUTIFY': <class 'gluon.html.BEAUTIFY'>, 'BODY': <class 'gluon.html.BODY'>, 'BR': <class 'gluon.html.BR'>, 'BUTTON': <class 'gluon.html.BUTTON'>, 'CAT': <class 'gluon.html.CAT'>, 'CENTER': <class 'gluon.html.CENTER'>, 'CLEANUP': <class 'gluon.validators.CLEANUP'>, ...}"
p3401
sS'ccode'
p3402
S'<code object <module> at 0x117fa0430, file "/Use...cations/funback/controllers/account.py", line 20>'
p3403
ssS'lnum'
p3404
I205
sS'lines'
p3405
(dp3406
I200
S'    try:'
p3407
sI201
S'        if type(code) == types.CodeType:'
p3408
sI202
S'            ccode = code'
p3409
sI203
S'        else:'
p3410
sI204
S'            ccode = compile2(code,layer)'
p3411
sI205
S'        exec ccode in environment'
p3412
sI206
S'    except HTTP:'
p3413
sI207
S'        raise'
p3414
sI208
S'    except RestrictedError:'
p3415
sI209
S'        # do not encapsulate (obfuscate) the original RestrictedError'
p3416
ssS'call'
p3417
S"(code='##########################\\n### Account Controlle...dict()\\nresponse._vars=response._caller(register)\\n', environment={'A': <class 'gluon.html.A'>, 'Auth': <class 'gluon.tools.Auth'>, 'B': <class 'gluon.html.B'>, 'BEAUTIFY': <class 'gluon.html.BEAUTIFY'>, 'BODY': <class 'gluon.html.BODY'>, 'BR': <class 'gluon.html.BR'>, 'BUTTON': <class 'gluon.html.BUTTON'>, 'CAT': <class 'gluon.html.CAT'>, 'CENTER': <class 'gluon.html.CENTER'>, 'CLEANUP': <class 'gluon.validators.CLEANUP'>, ...}, layer='/Users/cyan/Package/GitHub/funback/web2py/applications/funback/controllers/account.py')"
p3418
sS'func'
p3419
S'restricted'
p3420
sa(dp3421
g3396
S'/Users/cyan/Package/GitHub/funback/web2py/applications/funback/controllers/account.py'
p3422
sg3398
(dp3423
sg3404
I99
sg3405
(dp3424
I96
S"    if not request.function=='register' and not session.email:"
p3425
sI97
S"        redirect(URL('register'))"
p3426
sI98
S'    return dict()'
p3427
sI89
S'#        session.email = form.vars.email'
p3428
sI90
S'#        session.pwd = form.vars.pwd'
p3429
sI91
S"#        redirect(URL('registered'))"
p3430
sI92
S'#    return dict(form=form)'
p3431
sI93
S'#==============================================================================='
p3432
sI94
S''
sI95
S'def registered():'
p3433
ssg3417
S'()'
p3434
sg3419
S'<module>'
p3435
sa(dp3436
g3396
S'/Users/cyan/Package/GitHub/funback/web2py/gluon/globals.py'
p3437
sg3398
(dp3438
S'self'
p3439
S'undefined'
p3440
sS'f'
S'<function register>'
p3441
ssg3404
I173
sg3405
(dp3442
I168
S'        self.menu = []             # used by the default view layout'
p3443
sI169
S'        self.files = []            # used by web2py_ajax.html'
p3444
sI170
S'        self.generic_patterns = [] # patterns to allow generic views'
p3445
sI171
S"        self.delimiters = ('{{','}}')"
p3446
sI172
S'        self._vars = None'
p3447
sI173
S'        self._caller = lambda f: f()'
p3448
sI174
S'        self._view_environment = None'
p3449
sI175
S'        self._custom_commit = None'
p3450
sI176
S'        self._custom_rollback = None'
p3451
sI177
S''
ssg3417
S'(f=<function register>)'
p3452
sg3419
S'<lambda>'
p3453
sa(dp3454
g3396
S'/Users/cyan/Package/GitHub/funback/web2py/applications/funback/controllers/account.py'
p3455
sg3398
(dp3456
S'form.process'
p3457
S'<bound method SQLFORM.process of <gluon.sqlhtml.SQLFORM object>>'
p3458
sS').accepted'
p3459
g3440
sS'form'
p3460
S'<gluon.sqlhtml.SQLFORM object>'
p3461
ssg3404
I27
sg3405
(dp3462
I22
S'    exposes:'
p3463
sI23
S'    http://..../[app]/account/register'
p3464
sI24
S'    """'
p3465
sI25
S''
sI26
S'    form = auth.register()'
p3466
sI27
S'    if form.process().accepted:'
p3467
sI28
S'        session.email = form.vars.email'
p3468
sI29
S'        session.password = form.vars.password'
p3469
sI30
S"        redirect(URL('registered'))"
p3470
sI31
S''
ssg3417
S'()'
p3471
sg3419
S'register'
p3472
sa(dp3473
g3396
S'/Users/cyan/Package/GitHub/funback/web2py/gluon/html.py'
p3474
sg3398
(dp3475
S'self'
p3476
S'<gluon.sqlhtml.SQLFORM object>'
p3477
sS'self.validate'
p3478
S'<bound method SQLFORM.validate of <gluon.sqlhtml.SQLFORM object>>'
p3479
sS'kwargs'
p3480
S"{'dbio': True}"
p3481
ssg3404
I1994
sg3405
(dp3482
I1989
S'        # or a function name to use as callback or None to do nothing.'
p3483
sI1990
S'        def action():'
p3484
sI1991
S'            return dict(form=SQLFORM(db.table).process(onsuccess=my_callback)'
p3485
sI1992
S'        """'
p3486
sI1993
S"        kwargs['dbio'] = kwargs.get('dbio',True) # necessary for SQLHTML forms"
p3487
sI1994
S'        self.validate(**kwargs)'
p3488
sI1995
S'        return self'
p3489
sI1996
S''
sI1997
S''
sI1998
S'class BEAUTIFY(DIV):'
p3490
ssg3417
S"(self=<gluon.sqlhtml.SQLFORM object>, **kwargs={'dbio': True})"
p3491
sg3419
S'process'
p3492
sa(dp3493
g3396
S'/Users/cyan/Package/GitHub/funback/web2py/gluon/html.py'
p3494
sg3398
(dp3495
S'self'
p3496
S'<gluon.sqlhtml.SQLFORM object>'
p3497
sS'self.accepts'
p3498
S'<bound method SQLFORM.accepts of <gluon.sqlhtml.SQLFORM object>>'
p3499
sS'kwargs'
p3500
S"{'dbio': True, 'request_vars': <Storage {'password_two': 'opennow', '_formname'...opennow', 'email': 'chang.yan@balliol.ox.ac.uk'}>, 'session': <Storage {'_formkey[register]': '3ed4b687-ab35-4...4fa3cac', 'email': 'chang.yan@balliol.ox.ac.uk'}>}"
p3501
ssg3404
I1941
sg3405
(dp3502
I1936
S"        for key in ('message_onsuccess','message_onfailure','onsuccess',"
p3503
sI1937
S"                    'onfailure','next'):"
p3504
sI1938
S'            if key in kwargs:'
p3505
sI1939
S'                del kwargs[key]'
p3506
sI1940
S''
sI1941
S'        if self.accepts(**kwargs):'
p3507
sI1942
S"            if onsuccess == 'flash':"
p3508
sI1943
S'                if next:'
p3509
sI1944
S'                    current.session.flash = message_onsuccess'
p3510
sI1945
S'                else:'
p3511
ssg3417
S"(self=<gluon.sqlhtml.SQLFORM object>, **kwargs={'dbio': True, 'request_vars': <Storage {'password_two': 'opennow', '_formname'...opennow', 'email': 'chang.yan@balliol.ox.ac.uk'}>, 'session': <Storage {'_formkey[register]': '3ed4b687-ab35-4...4fa3cac', 'email': 'chang.yan@balliol.ox.ac.uk'}>})"
p3512
sg3419
S'validate'
p3513
sa(dp3514
g3396
S'/Users/cyan/Package/GitHub/funback/web2py/gluon/sqlhtml.py'
p3515
sg3398
(dp3516
S'hideerror'
p3517
g110
ssg3404
I1089
sg3405
(dp3518
I1088
S'            onvalidation,'
p3519
sI1089
S'            hideerror=hideerror,'
p3520
sI1090
S'            )'
p3521
sI1091
S''
sI1092
S'        if not ret and self.record and self.errors:'
p3522
sI1093
S'            ### if there are errors in update mode'
p3523
sI1084
S'            request_vars,'
p3524
sI1085
S'            session,'
p3525
sI1086
S'            formname,'
p3526
sI1087
S'            keepvalues,'
p3527
ssg3417
S"(self=<gluon.sqlhtml.SQLFORM object>, request_vars=<Storage {'password_two': 'opennow', '_formname'...opennow', 'email': 'chang.yan@balliol.ox.ac.uk'}>, session=<Storage {'_formkey[register]': '3ed4b687-ab35-4...4fa3cac', 'email': 'chang.yan@balliol.ox.ac.uk'}>, formname='user_login/create', keepvalues=False, onvalidation=None, dbio=True, hideerror=False, detect_record_change=False)"
p3528
sg3419
S'accepts'
p3529
sa(dp3530
g3396
S'/Users/cyan/Package/GitHub/funback/web2py/gluon/html.py'
p3531
sg3398
(dp3532
S'status'
p3533
g1818
sS'self'
p3534
S'<gluon.sqlhtml.SQLFORM object>'
p3535
sS'self._traverse'
p3536
S'<bound method SQLFORM._traverse of <gluon.sqlhtml.SQLFORM object>>'
p3537
sS'hideerror'
p3538
g110
ssg3404
I1841
sg3405
(dp3539
I1836
S'        if status and self.session:'
p3540
sI1837
S'            # check if editing a record that has been modified by the server'
p3541
sI1838
S"            if hasattr(self,'record_hash') and self.record_hash != formkey:"
p3542
sI1839
S'                status = False'
p3543
sI1840
S'                self.record_changed = True'
p3544
sI1841
S'        status = self._traverse(status,hideerror)'
p3545
sI1842
S'        if onvalidation:'
p3546
sI1843
S'            if isinstance(onvalidation, dict):'
p3547
sI1844
S"                onsuccess = onvalidation.get('onsuccess', None)"
p3548
sI1845
S"                onfailure = onvalidation.get('onfailure', None)"
p3549
ssg3417
S"(self=<gluon.sqlhtml.SQLFORM object>, request_vars=<Storage {'password_two': 'opennow', '_formname'...opennow', 'email': 'chang.yan@balliol.ox.ac.uk'}>, session=<Storage {'_formkey[register]': '3ed4b687-ab35-4...4fa3cac', 'email': 'chang.yan@balliol.ox.ac.uk'}>, formname='user_login/create', keepvalues=False, onvalidation=None, hideerror=False, **kwargs={})"
p3550
sg3419
g3529
sa(dp3551
g3396
S'/Users/cyan/Package/GitHub/funback/web2py/gluon/html.py'
p3552
sg3398
(dp3553
S'status'
p3554
g1818
sS'newstatus'
p3555
g1818
sS'c'
S'<gluon.html.TABLE object>'
p3556
sS'hideerror'
p3557
g110
sS'c._traverse'
p3558
S'<bound method TABLE._traverse of <gluon.html.TABLE object>>'
p3559
ssg3404
I781
sg3405
(dp3560
I776
S'                c.errors = self.errors'
p3561
sI777
S'                c.latest = self.latest'
p3562
sI778
S'                c.session = self.session'
p3563
sI779
S'                c.formname = self.formname'
p3564
sI780
S"                c['hideerror']=hideerror"
p3565
sI781
S'                newstatus = c._traverse(status,hideerror) and newstatus'
p3566
sI782
S''
sI783
S'        # for input, textarea, select, option'
p3567
sI784
S"        # deal with 'value' and 'validation'"
p3568
sI785
S''
ssg3417
S'(self=<gluon.sqlhtml.SQLFORM object>, status=True, hideerror=False)'
p3569
sg3419
S'_traverse'
p3570
sa(dp3571
g3396
S'/Users/cyan/Package/GitHub/funback/web2py/gluon/html.py'
p3572
sg3398
(dp3573
S'status'
p3574
g1818
sS'newstatus'
p3575
g1818
sS'c'
S'<gluon.html.TR object>'
p3576
sS'hideerror'
p3577
g110
sS'c._traverse'
p3578
S'<bound method TR._traverse of <gluon.html.TR object>>'
p3579
ssg3404
I781
sg3405
(dp3580
I776
S'                c.errors = self.errors'
p3581
sI777
S'                c.latest = self.latest'
p3582
sI778
S'                c.session = self.session'
p3583
sI779
S'                c.formname = self.formname'
p3584
sI780
S"                c['hideerror']=hideerror"
p3585
sI781
S'                newstatus = c._traverse(status,hideerror) and newstatus'
p3586
sI782
S''
sI783
S'        # for input, textarea, select, option'
p3587
sI784
S"        # deal with 'value' and 'validation'"
p3588
sI785
S''
ssg3417
S'(self=<gluon.html.TABLE object>, status=True, hideerror=False)'
p3589
sg3419
g3570
sa(dp3590
g3396
S'/Users/cyan/Package/GitHub/funback/web2py/gluon/html.py'
p3591
sg3398
(dp3592
S'status'
p3593
g1818
sS'newstatus'
p3594
g1818
sS'c'
S'<gluon.html.TD object>'
p3595
sS'hideerror'
p3596
g110
sS'c._traverse'
p3597
S'<bound method TD._traverse of <gluon.html.TD object>>'
p3598
ssg3404
I781
sg3405
(dp3599
I776
S'                c.errors = self.errors'
p3600
sI777
S'                c.latest = self.latest'
p3601
sI778
S'                c.session = self.session'
p3602
sI779
S'                c.formname = self.formname'
p3603
sI780
S"                c['hideerror']=hideerror"
p3604
sI781
S'                newstatus = c._traverse(status,hideerror) and newstatus'
p3605
sI782
S''
sI783
S'        # for input, textarea, select, option'
p3606
sI784
S"        # deal with 'value' and 'validation'"
p3607
sI785
S''
ssg3417
S'(self=<gluon.html.TR object>, status=True, hideerror=False)'
p3608
sg3419
g3570
sa(dp3609
g3396
S'/Users/cyan/Package/GitHub/funback/web2py/gluon/html.py'
p3610
sg3398
(dp3611
S'status'
p3612
g1818
sS'newstatus'
p3613
g1818
sS'c'
S'<gluon.html.INPUT object>'
p3614
sS'hideerror'
p3615
g110
sS'c._traverse'
p3616
S'<bound method INPUT._traverse of <gluon.html.INPUT object>>'
p3617
ssg3404
I781
sg3405
(dp3618
I776
S'                c.errors = self.errors'
p3619
sI777
S'                c.latest = self.latest'
p3620
sI778
S'                c.session = self.session'
p3621
sI779
S'                c.formname = self.formname'
p3622
sI780
S"                c['hideerror']=hideerror"
p3623
sI781
S'                newstatus = c._traverse(status,hideerror) and newstatus'
p3624
sI782
S''
sI783
S'        # for input, textarea, select, option'
p3625
sI784
S"        # deal with 'value' and 'validation'"
p3626
sI785
S''
ssg3417
S'(self=<gluon.html.TD object>, status=True, hideerror=False)'
p3627
sg3419
g3570
sa(dp3628
g3396
S'/Users/cyan/Package/GitHub/funback/web2py/gluon/html.py'
p3629
sg3398
(dp3630
S'newstatus'
p3631
g1818
sS'self'
p3632
S'<gluon.html.INPUT object>'
p3633
sS'self._validate'
p3634
S'<bound method INPUT._validate of <gluon.html.INPUT object>>'
p3635
ssg3404
I788
sg3405
(dp3636
I783
S'        # for input, textarea, select, option'
p3637
sI784
S"        # deal with 'value' and 'validation'"
p3638
sI785
S''
sI786
S"        name = self['_name']"
p3639
sI787
S'        if newstatus:'
p3640
sI788
S'            newstatus = self._validate()'
p3641
sI789
S'            self._postprocessing()'
p3642
sI790
S"        elif 'old_value' in self.attributes:"
p3643
sI791
S"            self['value'] = self['old_value']"
p3644
sI792
S'            self._postprocessing()'
p3645
ssg3417
S'(self=<gluon.html.INPUT object>, status=True, hideerror=False)'
p3646
sg3419
g3570
sa(dp3647
g3396
S'/Users/cyan/Package/GitHub/funback/web2py/gluon/html.py'
p3648
sg3398
(dp3649
S'errors'
p3650
S'None'
p3651
sS'value'
p3652
S"'chang.yan@balliol.ox.ac.uk'"
p3653
sS'validator'
p3654
S'<gluon.validators.IS_NOT_IN_DB object>'
p3655
ssg3404
I1606
sg3405
(dp3656
I1601
S"        requires = self['requires']"
p3657
sI1602
S'        if requires:'
p3658
sI1603
S'            if not isinstance(requires, (list, tuple)):'
p3659
sI1604
S'                requires = [requires]'
p3660
sI1605
S'            for validator in requires:'
p3661
sI1606
S'                (value, errors) = validator(value)'
p3662
sI1607
S'                if not errors is None:'
p3663
sI1608
S'                    self.vars[name] = value'
p3664
sI1609
S'                    self.errors[name] = errors'
p3665
sI1610
S'                    break'
p3666
ssg3417
S'(self=<gluon.html.INPUT object>)'
p3667
sg3419
S'_validate'
p3668
sa(dp3669
g3396
S'/Users/cyan/Package/GitHub/funback/web2py/gluon/validators.py'
p3670
sg3398
(dp3671
S'rows'
p3672
g3440
sS'self.dbset'
p3673
S'<gluon.dal.Set object>'
p3674
sS'self'
p3675
S'<gluon.validators.IS_NOT_IN_DB object>'
p3676
sS'ignore_common_filters'
p3677
g3440
sS').select'
p3678
g3440
sS'value'
p3679
S"'chang.yan@balliol.ox.ac.uk'"
p3680
sS'limitby'
p3681
g3440
sS'field'
p3682
S'<gluon.dal.Field object>'
p3683
sS'self.ignore_common_filters'
p3684
g110
ssg3404
I546
sg3405
(dp3685
I544
S'        table = self.dbset.db[tablename]'
p3686
sI545
S'        field = table[fieldname]'
p3687
sI546
S'        rows = self.dbset(field == value, ignore_common_filters = self.ignore_common_filters).select(limitby=(0, 1))'
p3688
sI547
S'        if len(rows) > 0:'
p3689
sI548
S'            if isinstance(self.record_id, dict):'
p3690
sI549
S'                for f in self.record_id:'
p3691
sI550
S'                    if str(getattr(rows[0], f)) != str(self.record_id[f]):'
p3692
sI541
S'        if value in self.allowed_override:'
p3693
sI542
S'            return (value, None)'
p3694
sI543
S"        (tablename, fieldname) = str(self.field).split('.')"
p3695
ssg3417
S"(self=<gluon.validators.IS_NOT_IN_DB object>, value='chang.yan@balliol.ox.ac.uk')"
p3696
sg3419
S'__call__'
p3697
sa(dp3698
g3396
S'/Users/cyan/Package/GitHub/funback/web2py/gluon/dal.py'
p3699
sg3398
(dp3700
S'self.query'
p3701
S'<gluon.dal.Query object>'
p3702
sS'adapter.select'
p3703
S'<bound method PostgreSQLAdapter.select of <gluon.dal.PostgreSQLAdapter object>>'
p3704
sS'fields'
p3705
S'[<gluon.dal.Field object>, <gluon.dal.Field object>, <gluon.dal.Field object>, <gluon.dal.Field object>, <gluon.dal.Field object>, <gluon.dal.Field object>, <gluon.dal.Field object>, <gluon.dal.Field object>]'
p3706
sS'adapter'
p3707
S'<gluon.dal.PostgreSQLAdapter object>'
p3708
sS'attributes'
p3709
S"{'limitby': (0, 1)}"
p3710
sS'self'
p3711
S'<gluon.dal.Set object>'
p3712
ssg3404
I7578
sg3405
(dp3713
I7573
S'        return self.db._adapter.count(self.query,distinct)'
p3714
sI7574
S''
sI7575
S'    def select(self, *fields, **attributes):'
p3715
sI7576
S'        adapter = self.db._adapter'
p3716
sI7577
S'        fields = adapter.expand_all(fields, adapter.tables(self.query))'
p3717
sI7578
S'        return adapter.select(self.query,fields,attributes)'
p3718
sI7579
S''
sI7580
S'    def delete(self):'
p3719
sI7581
S'        tablename=self.db._adapter.get_table(self.query)'
p3720
sI7582
S'        self.delete_uploaded_files()'
p3721
ssg3417
S"(self=<gluon.dal.Set object>, *fields=[<gluon.dal.Field object>, <gluon.dal.Field object>, <gluon.dal.Field object>, <gluon.dal.Field object>, <gluon.dal.Field object>, <gluon.dal.Field object>, <gluon.dal.Field object>, <gluon.dal.Field object>], **attributes={'limitby': (0, 1)})"
p3722
sg3419
S'select'
p3723
sa(dp3724
g3396
S'/Users/cyan/Package/GitHub/funback/web2py/gluon/dal.py'
p3725
sg3398
(dp3726
S'rows'
p3727
g3440
sS'response'
p3728
S'<function response>'
p3729
sS'sql'
p3730
S'"SELECT  user_login.id, user_login.first_name, us....ac.uk\') ORDER BY user_login.id LIMIT 1 OFFSET 0;"'
p3731
ssg3404
I1315
sg3405
(dp3732
I1312
S'            key = (len(key)<=200) and key or hashlib.md5(key).hexdigest()'
p3733
sI1313
S'            rows = cache_model(key, lambda: response(sql), time_expire)'
p3734
sI1314
S'        else:'
p3735
sI1315
S'            rows = response(sql)'
p3736
sI1316
S'        if isinstance(rows,tuple):'
p3737
sI1317
S'            rows = list(rows)'
p3738
sI1318
S"        limitby = attributes.get('limitby', None) or (0,)"
p3739
sI1319
S'        rows = self.rowslice(rows,limitby[0],None)'
p3740
sI1310
S"            del attributes['cache']"
p3741
sI1311
S"            key = self.uri + '/' + sql"
p3742
ssg3417
S"(self=<gluon.dal.PostgreSQLAdapter object>, query=<gluon.dal.Query object>, fields=[<gluon.dal.Field object>, <gluon.dal.Field object>, <gluon.dal.Field object>, <gluon.dal.Field object>, <gluon.dal.Field object>, <gluon.dal.Field object>, <gluon.dal.Field object>, <gluon.dal.Field object>], attributes={'limitby': (0, 1)})"
p3743
sg3419
g3723
sa(dp3744
g3396
S'/Users/cyan/Package/GitHub/funback/web2py/gluon/dal.py'
p3745
sg3398
(dp3746
S'self'
p3747
S'<gluon.dal.PostgreSQLAdapter object>'
p3748
sS'self.execute'
p3749
S'<bound method PostgreSQLAdapter.execute of <gluon.dal.PostgreSQLAdapter object>>'
p3750
sS'sql'
p3751
S'"SELECT  user_login.id, user_login.first_name, us....ac.uk\') ORDER BY user_login.id LIMIT 1 OFFSET 0;"'
p3752
ssg3404
I1305
sg3405
(dp3753
I1300
S'    def select(self, query, fields, attributes):'
p3754
sI1301
S'        """'
p3755
sI1302
S'        Always returns a Rows object, possibly empty.'
p3756
sI1303
S'        """'
p3757
sI1304
S'        def response(sql):'
p3758
sI1305
S'            self.execute(sql)'
p3759
sI1306
S'            return self.cursor.fetchall()'
p3760
sI1307
S'        sql = self._select(query, fields, attributes)'
p3761
sI1308
S"        if attributes.get('cache', None):"
p3762
sI1309
S"            (cache_model, time_expire) = attributes['cache']"
p3763
ssg3417
S'(sql="SELECT  user_login.id, user_login.first_name, us....ac.uk\') ORDER BY user_login.id LIMIT 1 OFFSET 0;")'
p3764
sg3419
S'response'
p3765
sa(dp3766
g3396
S'/Users/cyan/Package/GitHub/funback/web2py/gluon/dal.py'
p3767
sg3398
(dp3768
S'a'
S'("SELECT  user_login.id, user_login.first_name, us....ac.uk\') ORDER BY user_login.id LIMIT 1 OFFSET 0;",)'
p3769
sS'self'
p3770
S'<gluon.dal.PostgreSQLAdapter object>'
p3771
sS'b'
S'{}'
p3772
sS'self.log_execute'
p3773
S'<bound method PostgreSQLAdapter.log_execute of <gluon.dal.PostgreSQLAdapter object>>'
p3774
ssg3404
I1392
sg3405
(dp3775
I1387
S'        self.db._timings.append((a[0],time.time()-t0))'
p3776
sI1388
S'        del self.db._timings[:-TIMINGSSIZE]'
p3777
sI1389
S'        return ret'
p3778
sI1390
S''
sI1391
S'    def execute(self, *a, **b):'
p3779
sI1392
S'        return self.log_execute(*a, **b)'
p3780
sI1393
S''
sI1394
S'    def represent(self, obj, fieldtype):'
p3781
sI1395
S'        if isinstance(obj, CALLABLETYPES):'
p3782
sI1396
S'            obj = obj()'
p3783
ssg3417
S'(self=<gluon.dal.PostgreSQLAdapter object>, *a=("SELECT  user_login.id, user_login.first_name, us....ac.uk\') ORDER BY user_login.id LIMIT 1 OFFSET 0;",), **b={})'
p3784
sg3419
S'execute'
p3785
sa(dp3786
g3396
S'/Users/cyan/Package/GitHub/funback/web2py/gluon/dal.py'
p3787
sg3398
(dp3788
S'a'
S'("SELECT  user_login.id, user_login.first_name, us....ac.uk\') ORDER BY user_login.id LIMIT 1 OFFSET 0;",)'
p3789
sS'b'
g3772
sS'self'
p3790
S'<gluon.dal.PostgreSQLAdapter object>'
p3791
sS'ret'
p3792
g3440
sS'self.cursor'
p3793
S'<cursor object at 0x1026cd810; closed: 0>'
p3794
sS'self.cursor.execute'
p3795
S'<built-in method execute of psycopg2._psycopg.cursor object>'
p3796
ssg3404
I1386
sg3405
(dp3797
I1381
S'        self.execute(query)'
p3798
sI1382
S''
sI1383
S'    def log_execute(self, *a, **b):'
p3799
sI1384
S'        self.db._lastsql = a[0]'
p3800
sI1385
S'        t0 = time.time()'
p3801
sI1386
S'        ret = self.cursor.execute(*a, **b)'
p3802
sI1387
S'        self.db._timings.append((a[0],time.time()-t0))'
p3803
sI1388
S'        del self.db._timings[:-TIMINGSSIZE]'
p3804
sI1389
S'        return ret'
p3805
sI1390
S''
ssg3417
S'(self=<gluon.dal.PostgreSQLAdapter object>, *a=("SELECT  user_login.id, user_login.first_name, us....ac.uk\') ORDER BY user_login.id LIMIT 1 OFFSET 0;",), **b={})'
p3806
sg3419
S'log_execute'
p3807
sasS'pyver'
p3808
S'Python 2.7.2: /Library/Frameworks/Python.framework/Versions/2.7/Resources/Python.app/Contents/MacOS/Python'
p3809
sS'session'
p3810
g67
(g68
g69
NtRp3811
(dp3812
g72
(dp3813
sg74
(lp3814
g67
(g76
g69
NtRp3815
(dp3816
g72
(dp3817
g80
I5
ssg81
Nsg74
(lp3818
g67
(g83
g69
NtRp3819
(dp3820
g72
(dp3821
sg81
g3815
sg74
(lp3822
g67
(g88
g69
NtRp3823
(dp3824
g72
(dp3825
g92
g93
ssg81
g3819
sg74
(lp3826
S'email'
p3827
asbag67
(g88
g69
NtRp3828
(dp3829
g72
(dp3830
g99
g100
ssg81
g3819
sg74
(lp3831
S':'
asbag67
(g88
g69
NtRp3832
(dp3833
g72
(dp3834
sg81
g3819
sg74
(lp3835
g67
(g68
g69
NtRp3836
(dp3837
g72
(dp3838
g80
I5
ssg81
g3832
sg74
(lp3839
S'chang.yan@balliol.ox.ac.uk'
p3840
asbasbasbag67
(g83
g69
NtRp3841
(dp3842
g72
(dp3843
sg81
g3815
sg74
(lp3844
g67
(g88
g69
NtRp3845
(dp3846
g72
(dp3847
g92
g93
ssg81
g3841
sg74
(lp3848
S'password'
p3849
asbag67
(g88
g69
NtRp3850
(dp3851
g72
(dp3852
g99
g100
ssg81
g3841
sg74
(lp3853
S':'
asbag67
(g88
g69
NtRp3854
(dp3855
g72
(dp3856
sg81
g3841
sg74
(lp3857
g67
(g68
g69
NtRp3858
(dp3859
g72
(dp3860
g80
I5
ssg81
g3854
sg74
(lp3861
S'4e367adaff7336dbc42b9e2964fa3cac'
p3862
asbasbasbasbasbsS'etype'
p3863
S"<class 'psycopg2.ProgrammingError'>"
p3864
sS'date'
p3865
S'Tue Apr 17 13:55:07 2012'
p3866
sg3765
g67
(g68
g69
NtRp3867
(dp3868
g72
(dp3869
sg74
(lp3870
g67
(g76
g69
NtRp3871
(dp3872
g72
(dp3873
g80
I5
ssg81
Nsg74
(lp3874
g67
(g83
g69
NtRp3875
(dp3876
g72
(dp3877
sg81
g3871
sg74
(lp3878
g67
(g88
g69
NtRp3879
(dp3880
g72
(dp3881
g92
g93
ssg81
g3875
sg74
(lp3882
g165
asbag67
(g88
g69
NtRp3883
(dp3884
g72
(dp3885
g99
g100
ssg81
g3875
sg74
(lp3886
S':'
asbag67
(g88
g69
NtRp3887
(dp3888
g72
(dp3889
sg81
g3875
sg74
(lp3890
g67
(g68
g69
NtRp3891
(dp3892
g72
(dp3893
g80
I5
ssg81
g3887
sg74
(lp3894
S'<cStringIO.StringO object at 0x117fa1b20>'
p3895
asbasbasbag67
(g83
g69
NtRp3896
(dp3897
g72
(dp3898
sg81
g3871
sg74
(lp3899
g67
(g88
g69
NtRp3900
(dp3901
g72
(dp3902
g92
g93
ssg81
g3896
sg74
(lp3903
g231
asbag67
(g88
g69
NtRp3904
(dp3905
g72
(dp3906
g99
g100
ssg81
g3896
sg74
(lp3907
S':'
asbag67
(g88
g69
NtRp3908
(dp3909
g72
(dp3910
sg81
g3896
sg74
(lp3911
g67
(g68
g69
NtRp3912
(dp3913
g72
(dp3914
g80
I5
ssg81
g3908
sg74
(lp3915
g67
(g76
g69
NtRp3916
(dp3917
g72
(dp3918
g80
I4
ssg81
Nsg74
(lp3919
g67
(g83
g69
NtRp3920
(dp3921
g72
(dp3922
sg81
g3916
sg74
(lp3923
g67
(g88
g69
NtRp3924
(dp3925
g72
(dp3926
g92
g93
ssg81
g3920
sg74
(lp3927
S'session_id_funback'
p3928
asbag67
(g88
g69
NtRp3929
(dp3930
g72
(dp3931
g99
g100
ssg81
g3920
sg74
(lp3932
S':'
asbag67
(g88
g69
NtRp3933
(dp3934
g72
(dp3935
sg81
g3920
sg74
(lp3936
g67
(g68
g69
NtRp3937
(dp3938
g72
(dp3939
g80
I4
ssg81
g3933
sg74
(lp3940
g67
(g76
g69
NtRp3941
(dp3942
g72
(dp3943
g80
I3
ssg81
Nsg74
(lp3944
g67
(g83
g69
NtRp3945
(dp3946
g72
(dp3947
sg81
g3941
sg74
(lp3948
g67
(g88
g69
NtRp3949
(dp3950
g72
(dp3951
g92
g93
ssg81
g3945
sg74
(lp3952
g281
asbag67
(g88
g69
NtRp3953
(dp3954
g72
(dp3955
g99
g100
ssg81
g3945
sg74
(lp3956
S':'
asbag67
(g88
g69
NtRp3957
(dp3958
g72
(dp3959
sg81
g3945
sg74
(lp3960
g67
(g68
g69
NtRp3961
(dp3962
g72
(dp3963
g80
I3
ssg81
g3957
sg74
(lp3964
S''
asbasbasbag67
(g83
g69
NtRp3965
(dp3966
g72
(dp3967
sg81
g3941
sg74
(lp3968
g67
(g88
g69
NtRp3969
(dp3970
g72
(dp3971
g92
g93
ssg81
g3965
sg74
(lp3972
g302
asbag67
(g88
g69
NtRp3973
(dp3974
g72
(dp3975
g99
g100
ssg81
g3965
sg74
(lp3976
S':'
asbag67
(g88
g69
NtRp3977
(dp3978
g72
(dp3979
sg81
g3965
sg74
(lp3980
g67
(g68
g69
NtRp3981
(dp3982
g72
(dp3983
g80
I3
ssg81
g3977
sg74
(lp3984
S''
asbasbasbag67
(g83
g69
NtRp3985
(dp3986
g72
(dp3987
sg81
g3941
sg74
(lp3988
g67
(g88
g69
NtRp3989
(dp3990
g72
(dp3991
g92
g93
ssg81
g3985
sg74
(lp3992
g323
asbag67
(g88
g69
NtRp3993
(dp3994
g72
(dp3995
g99
g100
ssg81
g3985
sg74
(lp3996
S':'
asbag67
(g88
g69
NtRp3997
(dp3998
g72
(dp3999
sg81
g3985
sg74
(lp4000
g67
(g68
g69
NtRp4001
(dp4002
g72
(dp4003
g80
I3
ssg81
g3997
sg74
(lp4004
S''
asbasbasbag67
(g83
g69
NtRp4005
(dp4006
g72
(dp4007
sg81
g3941
sg74
(lp4008
g67
(g88
g69
NtRp4009
(dp4010
g72
(dp4011
g92
g93
ssg81
g4005
sg74
(lp4012
g344
asbag67
(g88
g69
NtRp4013
(dp4014
g72
(dp4015
g99
g100
ssg81
g4005
sg74
(lp4016
S':'
asbag67
(g88
g69
NtRp4017
(dp4018
g72
(dp4019
sg81
g4005
sg74
(lp4020
g67
(g68
g69
NtRp4021
(dp4022
g72
(dp4023
g80
I3
ssg81
g4017
sg74
(lp4024
S''
asbasbasbag67
(g83
g69
NtRp4025
(dp4026
g72
(dp4027
sg81
g3941
sg74
(lp4028
g67
(g88
g69
NtRp4029
(dp4030
g72
(dp4031
g92
g93
ssg81
g4025
sg74
(lp4032
g365
asbag67
(g88
g69
NtRp4033
(dp4034
g72
(dp4035
g99
g100
ssg81
g4025
sg74
(lp4036
S':'
asbag67
(g88
g69
NtRp4037
(dp4038
g72
(dp4039
sg81
g4025
sg74
(lp4040
g67
(g68
g69
NtRp4041
(dp4042
g72
(dp4043
g80
I3
ssg81
g4037
sg74
(lp4044
S''
asbasbasbag67
(g83
g69
NtRp4045
(dp4046
g72
(dp4047
sg81
g3941
sg74
(lp4048
g67
(g88
g69
NtRp4049
(dp4050
g72
(dp4051
g92
g93
ssg81
g4045
sg74
(lp4052
g386
asbag67
(g88
g69
NtRp4053
(dp4054
g72
(dp4055
g99
g100
ssg81
g4045
sg74
(lp4056
S':'
asbag67
(g88
g69
NtRp4057
(dp4058
g72
(dp4059
sg81
g4045
sg74
(lp4060
g67
(g68
g69
NtRp4061
(dp4062
g72
(dp4063
g80
I3
ssg81
g4057
sg74
(lp4064
S'/'
asbasbasbag67
(g83
g69
NtRp4065
(dp4066
g72
(dp4067
sg81
g3941
sg74
(lp4068
g67
(g88
g69
NtRp4069
(dp4070
g72
(dp4071
g92
g93
ssg81
g4065
sg74
(lp4072
g407
asbag67
(g88
g69
NtRp4073
(dp4074
g72
(dp4075
g99
g100
ssg81
g4065
sg74
(lp4076
S':'
asbag67
(g88
g69
NtRp4077
(dp4078
g72
(dp4079
sg81
g4065
sg74
(lp4080
g67
(g68
g69
NtRp4081
(dp4082
g72
(dp4083
g80
I3
ssg81
g4077
sg74
(lp4084
S''
asbasbasbag67
(g83
g69
NtRp4085
(dp4086
g72
(dp4087
sg81
g3941
sg74
(lp4088
g67
(g88
g69
NtRp4089
(dp4090
g72
(dp4091
g92
g93
ssg81
g4085
sg74
(lp4092
g428
asbag67
(g88
g69
NtRp4093
(dp4094
g72
(dp4095
g99
g100
ssg81
g4085
sg74
(lp4096
S':'
asbag67
(g88
g69
NtRp4097
(dp4098
g72
(dp4099
sg81
g4085
sg74
(lp4100
g67
(g68
g69
NtRp4101
(dp4102
g72
(dp4103
g80
I3
ssg81
g4097
sg74
(lp4104
S''
asbasbasbasbasbasbasbasbasbasbasbag67
(g83
g69
NtRp4105
(dp4106
g72
(dp4107
sg81
g3871
sg74
(lp4108
g67
(g88
g69
NtRp4109
(dp4110
g72
(dp4111
g92
g93
ssg81
g4105
sg74
(lp4112
S'delimiters'
p4113
asbag67
(g88
g69
NtRp4114
(dp4115
g72
(dp4116
g99
g100
ssg81
g4105
sg74
(lp4117
S':'
asbag67
(g88
g69
NtRp4118
(dp4119
g72
(dp4120
sg81
g4105
sg74
(lp4121
g67
(g68
g69
NtRp4122
(dp4123
g72
(dp4124
g80
I5
ssg81
g4118
sg74
(lp4125
g67
(g76
g69
NtRp4126
(dp4127
g72
(dp4128
g80
I4
ssg81
Nsg74
(lp4129
g67
(g83
g69
NtRp4130
(dp4131
g72
(dp4132
sg81
g4126
sg74
(lp4133
g67
(g88
g69
NtRp4134
(dp4135
g72
(dp4136
sg81
g4130
sg74
(lp4137
g67
(g68
g69
NtRp4138
(dp4139
g72
(dp4140
g80
I4
ssg81
g4134
sg74
(lp4141
S'{{'
p4142
asbasbasbag67
(g83
g69
NtRp4143
(dp4144
g72
(dp4145
sg81
g4126
sg74
(lp4146
g67
(g88
g69
NtRp4147
(dp4148
g72
(dp4149
sg81
g4143
sg74
(lp4150
g67
(g68
g69
NtRp4151
(dp4152
g72
(dp4153
g80
I4
ssg81
g4147
sg74
(lp4154
S'}}'
p4155
asbasbasbasbasbasbasbag67
(g83
g69
NtRp4156
(dp4157
g72
(dp4158
sg81
g3871
sg74
(lp4159
g67
(g88
g69
NtRp4160
(dp4161
g72
(dp4162
g92
g93
ssg81
g4156
sg74
(lp4163
S'files'
p4164
asbag67
(g88
g69
NtRp4165
(dp4166
g72
(dp4167
g99
g100
ssg81
g4156
sg74
(lp4168
S':'
asbag67
(g88
g69
NtRp4169
(dp4170
g72
(dp4171
sg81
g4156
sg74
(lp4172
g67
(g68
g69
NtRp4173
(dp4174
g72
(dp4175
g80
I5
ssg81
g4169
sg74
(lp4176
g67
(g76
g69
NtRp4177
(dp4178
g72
(dp4179
g80
I4
ssg81
Nsg74
(lp4180
sbasbasbasbag67
(g83
g69
NtRp4181
(dp4182
g72
(dp4183
sg81
g3871
sg74
(lp4184
g67
(g88
g69
NtRp4185
(dp4186
g72
(dp4187
g92
g93
ssg81
g4181
sg74
(lp4188
S'flash'
p4189
asbag67
(g88
g69
NtRp4190
(dp4191
g72
(dp4192
g99
g100
ssg81
g4181
sg74
(lp4193
S':'
asbag67
(g88
g69
NtRp4194
(dp4195
g72
(dp4196
sg81
g4181
sg74
(lp4197
g67
(g68
g69
NtRp4198
(dp4199
g72
(dp4200
g80
I5
ssg81
g4194
sg74
(lp4201
S''
asbasbasbag67
(g83
g69
NtRp4202
(dp4203
g72
(dp4204
sg81
g3871
sg74
(lp4205
g67
(g88
g69
NtRp4206
(dp4207
g72
(dp4208
g92
g93
ssg81
g4202
sg74
(lp4209
S'generic_patterns'
p4210
asbag67
(g88
g69
NtRp4211
(dp4212
g72
(dp4213
g99
g100
ssg81
g4202
sg74
(lp4214
S':'
asbag67
(g88
g69
NtRp4215
(dp4216
g72
(dp4217
sg81
g4202
sg74
(lp4218
g67
(g68
g69
NtRp4219
(dp4220
g72
(dp4221
g80
I5
ssg81
g4215
sg74
(lp4222
g67
(g76
g69
NtRp4223
(dp4224
g72
(dp4225
g80
I4
ssg81
Nsg74
(lp4226
sbasbasbasbag67
(g83
g69
NtRp4227
(dp4228
g72
(dp4229
sg81
g3871
sg74
(lp4230
g67
(g88
g69
NtRp4231
(dp4232
g72
(dp4233
g92
g93
ssg81
g4227
sg74
(lp4234
S'headers'
p4235
asbag67
(g88
g69
NtRp4236
(dp4237
g72
(dp4238
g99
g100
ssg81
g4227
sg74
(lp4239
S':'
asbag67
(g88
g69
NtRp4240
(dp4241
g72
(dp4242
sg81
g4227
sg74
(lp4243
g67
(g68
g69
NtRp4244
(dp4245
g72
(dp4246
g80
I5
ssg81
g4240
sg74
(lp4247
g67
(g76
g69
NtRp4248
(dp4249
g72
(dp4250
g80
I4
ssg81
Nsg74
(lp4251
g67
(g83
g69
NtRp4252
(dp4253
g72
(dp4254
sg81
g4248
sg74
(lp4255
g67
(g88
g69
NtRp4256
(dp4257
g72
(dp4258
g92
g93
ssg81
g4252
sg74
(lp4259
S'Cache-Control'
p4260
asbag67
(g88
g69
NtRp4261
(dp4262
g72
(dp4263
g99
g100
ssg81
g4252
sg74
(lp4264
S':'
asbag67
(g88
g69
NtRp4265
(dp4266
g72
(dp4267
sg81
g4252
sg74
(lp4268
g67
(g68
g69
NtRp4269
(dp4270
g72
(dp4271
g80
I4
ssg81
g4265
sg74
(lp4272
S'no-store, no-cache, must-revalidate, post-check=0, pre-check=0'
p4273
asbasbasbag67
(g83
g69
NtRp4274
(dp4275
g72
(dp4276
sg81
g4248
sg74
(lp4277
g67
(g88
g69
NtRp4278
(dp4279
g72
(dp4280
g92
g93
ssg81
g4274
sg74
(lp4281
S'Content-Type'
p4282
asbag67
(g88
g69
NtRp4283
(dp4284
g72
(dp4285
g99
g100
ssg81
g4274
sg74
(lp4286
S':'
asbag67
(g88
g69
NtRp4287
(dp4288
g72
(dp4289
sg81
g4274
sg74
(lp4290
g67
(g68
g69
NtRp4291
(dp4292
g72
(dp4293
g80
I4
ssg81
g4287
sg74
(lp4294
S'text/html; charset=utf-8'
p4295
asbasbasbag67
(g83
g69
NtRp4296
(dp4297
g72
(dp4298
sg81
g4248
sg74
(lp4299
g67
(g88
g69
NtRp4300
(dp4301
g72
(dp4302
g92
g93
ssg81
g4296
sg74
(lp4303
S'Expires'
p4304
asbag67
(g88
g69
NtRp4305
(dp4306
g72
(dp4307
g99
g100
ssg81
g4296
sg74
(lp4308
S':'
asbag67
(g88
g69
NtRp4309
(dp4310
g72
(dp4311
sg81
g4296
sg74
(lp4312
g67
(g68
g69
NtRp4313
(dp4314
g72
(dp4315
g80
I4
ssg81
g4309
sg74
(lp4316
S'Tue, 17 Apr 2012 17:55:06 GMT'
p4317
asbasbasbag67
(g83
g69
NtRp4318
(dp4319
g72
(dp4320
sg81
g4248
sg74
(lp4321
g67
(g88
g69
NtRp4322
(dp4323
g72
(dp4324
g92
g93
ssg81
g4318
sg74
(lp4325
S'Pragma'
p4326
asbag67
(g88
g69
NtRp4327
(dp4328
g72
(dp4329
g99
g100
ssg81
g4318
sg74
(lp4330
S':'
asbag67
(g88
g69
NtRp4331
(dp4332
g72
(dp4333
sg81
g4318
sg74
(lp4334
g67
(g68
g69
NtRp4335
(dp4336
g72
(dp4337
g80
I4
ssg81
g4331
sg74
(lp4338
S'no-cache'
p4339
asbasbasbag67
(g83
g69
NtRp4340
(dp4341
g72
(dp4342
sg81
g4248
sg74
(lp4343
g67
(g88
g69
NtRp4344
(dp4345
g72
(dp4346
g92
g93
ssg81
g4340
sg74
(lp4347
S'X-Powered-By'
p4348
asbag67
(g88
g69
NtRp4349
(dp4350
g72
(dp4351
g99
g100
ssg81
g4340
sg74
(lp4352
S':'
asbag67
(g88
g69
NtRp4353
(dp4354
g72
(dp4355
sg81
g4340
sg74
(lp4356
g67
(g68
g69
NtRp4357
(dp4358
g72
(dp4359
g80
I4
ssg81
g4353
sg74
(lp4360
S'web2py'
p4361
asbasbasbasbasbasbasbag67
(g83
g69
NtRp4362
(dp4363
g72
(dp4364
sg81
g3871
sg74
(lp4365
g67
(g88
g69
NtRp4366
(dp4367
g72
(dp4368
g92
g93
ssg81
g4362
sg74
(lp4369
S'menu'
p4370
asbag67
(g88
g69
NtRp4371
(dp4372
g72
(dp4373
g99
g100
ssg81
g4362
sg74
(lp4374
S':'
asbag67
(g88
g69
NtRp4375
(dp4376
g72
(dp4377
sg81
g4362
sg74
(lp4378
g67
(g68
g69
NtRp4379
(dp4380
g72
(dp4381
g80
I5
ssg81
g4375
sg74
(lp4382
g67
(g76
g69
NtRp4383
(dp4384
g72
(dp4385
g80
I4
ssg81
Nsg74
(lp4386
g67
(g83
g69
NtRp4387
(dp4388
g72
(dp4389
sg81
g4383
sg74
(lp4390
g67
(g88
g69
NtRp4391
(dp4392
g72
(dp4393
sg81
g4387
sg74
(lp4394
g67
(g68
g69
NtRp4395
(dp4396
g72
(dp4397
g80
I4
ssg81
g4391
sg74
(lp4398
g67
(g76
g69
NtRp4399
(dp4400
g72
(dp4401
g80
I3
ssg81
Nsg74
(lp4402
g67
(g83
g69
NtRp4403
(dp4404
g72
(dp4405
sg81
g4399
sg74
(lp4406
g67
(g88
g69
NtRp4407
(dp4408
g72
(dp4409
sg81
g4403
sg74
(lp4410
g67
(g68
g69
NtRp4411
(dp4412
g72
(dp4413
g80
I3
ssg81
g4407
sg74
(lp4414
cgluon.languages
lazyT_unpickle
p4415
(S't\x04\x00\x00\x00Home'
tRp4416
asbasbasbag67
(g83
g69
NtRp4417
(dp4418
g72
(dp4419
sg81
g4399
sg74
(lp4420
g67
(g88
g69
NtRp4421
(dp4422
g72
(dp4423
sg81
g4417
sg74
(lp4424
g67
(g68
g69
NtRp4425
(dp4426
g72
(dp4427
g80
I3
ssg81
g4421
sg74
(lp4428
g110
asbasbasbag67
(g83
g69
NtRp4429
(dp4430
g72
(dp4431
sg81
g4399
sg74
(lp4432
g67
(g88
g69
NtRp4433
(dp4434
g72
(dp4435
sg81
g4429
sg74
(lp4436
g67
(g68
g69
NtRp4437
(dp4438
g72
(dp4439
g80
I3
ssg81
g4433
sg74
(lp4440
S'/funback/default/index'
p4441
asbasbasbag67
(g83
g69
NtRp4442
(dp4443
g72
(dp4444
sg81
g4399
sg74
(lp4445
g67
(g88
g69
NtRp4446
(dp4447
g72
(dp4448
sg81
g4442
sg74
(lp4449
g67
(g68
g69
NtRp4450
(dp4451
g72
(dp4452
g80
I3
ssg81
g4446
sg74
(lp4453
g67
(g76
g69
NtRp4454
(dp4455
g72
(dp4456
g80
I2
ssg81
Nsg74
(lp4457
sbasbasbasbasbasbasbasbag67
(g83
g69
NtRp4458
(dp4459
g72
(dp4460
sg81
g4383
sg74
(lp4461
g67
(g88
g69
NtRp4462
(dp4463
g72
(dp4464
sg81
g4458
sg74
(lp4465
g67
(g68
g69
NtRp4466
(dp4467
g72
(dp4468
g80
I4
ssg81
g4462
sg74
(lp4469
g67
(g76
g69
NtRp4470
(dp4471
g72
(dp4472
g80
I3
ssg81
Nsg74
(lp4473
g67
(g83
g69
NtRp4474
(dp4475
g72
(dp4476
sg81
g4470
sg74
(lp4477
g67
(g88
g69
NtRp4478
(dp4479
g72
(dp4480
sg81
g4474
sg74
(lp4481
g67
(g68
g69
NtRp4482
(dp4483
g72
(dp4484
g80
I3
ssg81
g4478
sg74
(lp4485
g67
(cgluon.html
SPAN
p4486
g69
NtRp4487
(dp4488
g72
(dp4489
g92
S'color:yellow'
p4490
ssg81
Nsg74
(lp4491
g4361
asbasbasbasbag67
(g83
g69
NtRp4492
(dp4493
g72
(dp4494
sg81
g4470
sg74
(lp4495
g67
(g88
g69
NtRp4496
(dp4497
g72
(dp4498
sg81
g4492
sg74
(lp4499
g67
(g68
g69
NtRp4500
(dp4501
g72
(dp4502
g80
I3
ssg81
g4496
sg74
(lp4503
g110
asbasbasbag67
(g83
g69
NtRp4504
(dp4505
g72
(dp4506
sg81
g4470
sg74
(lp4507
g67
(g88
g69
NtRp4508
(dp4509
g72
(dp4510
sg81
g4504
sg74
(lp4511
g67
(g68
g69
NtRp4512
(dp4513
g72
(dp4514
g80
I3
ssg81
g4508
sg74
(lp4515
S'None'
p4516
asbasbasbag67
(g83
g69
NtRp4517
(dp4518
g72
(dp4519
sg81
g4470
sg74
(lp4520
g67
(g88
g69
NtRp4521
(dp4522
g72
(dp4523
sg81
g4517
sg74
(lp4524
g67
(g68
g69
NtRp4525
(dp4526
g72
(dp4527
g80
I3
ssg81
g4521
sg74
(lp4528
g67
(g76
g69
NtRp4529
(dp4530
g72
(dp4531
g80
I2
ssg81
Nsg74
(lp4532
g67
(g83
g69
NtRp4533
(dp4534
g72
(dp4535
sg81
g4529
sg74
(lp4536
g67
(g88
g69
NtRp4537
(dp4538
g72
(dp4539
sg81
g4533
sg74
(lp4540
g67
(g68
g69
NtRp4541
(dp4542
g72
(dp4543
g80
I2
ssg81
g4537
sg74
(lp4544
g67
(g76
g69
NtRp4545
(dp4546
g72
(dp4547
g80
I1
ssg81
Nsg74
(lp4548
g67
(g83
g69
NtRp4549
(dp4550
g72
(dp4551
sg81
g4545
sg74
(lp4552
g67
(g88
g69
NtRp4553
(dp4554
g72
(dp4555
sg81
g4549
sg74
(lp4556
g67
(g68
g69
NtRp4557
(dp4558
g72
(dp4559
g80
I1
ssg81
g4553
sg74
(lp4560
g4415
(S's\x08\x00\x00\x00My Sites'
tRp4561
asbasbasbag67
(g83
g69
NtRp4562
(dp4563
g72
(dp4564
sg81
g4545
sg74
(lp4565
g67
(g88
g69
NtRp4566
(dp4567
g72
(dp4568
sg81
g4562
sg74
(lp4569
g67
(g68
g69
NtRp4570
(dp4571
g72
(dp4572
g80
I1
ssg81
g4566
sg74
(lp4573
I00
asbasbasbag67
(g83
g69
NtRp4574
(dp4575
g72
(dp4576
sg81
g4545
sg74
(lp4577
g67
(g88
g69
NtRp4578
(dp4579
g72
(dp4580
sg81
g4574
sg74
(lp4581
g67
(g68
g69
NtRp4582
(dp4583
g72
(dp4584
g80
I1
ssg81
g4578
sg74
(lp4585
S'/admin/default/site'
p4586
asbasbasbasbasbasbasbag67
(g83
g69
NtRp4587
(dp4588
g72
(dp4589
sg81
g4529
sg74
(lp4590
g67
(g88
g69
NtRp4591
(dp4592
g72
(dp4593
sg81
g4587
sg74
(lp4594
g67
(g68
g69
NtRp4595
(dp4596
g72
(dp4597
g80
I2
ssg81
g4591
sg74
(lp4598
g67
(g76
g69
NtRp4599
(dp4600
g72
(dp4601
g80
I1
ssg81
Nsg74
(lp4602
g67
(g83
g69
NtRp4603
(dp4604
g72
(dp4605
sg81
g4599
sg74
(lp4606
g67
(g88
g69
NtRp4607
(dp4608
g72
(dp4609
sg81
g4603
sg74
(lp4610
g67
(g68
g69
NtRp4611
(dp4612
g72
(dp4613
g80
I1
ssg81
g4607
sg74
(lp4614
g4415
(S's\x08\x00\x00\x00This App'
tRp4615
asbasbasbag67
(g83
g69
NtRp4616
(dp4617
g72
(dp4618
sg81
g4599
sg74
(lp4619
g67
(g88
g69
NtRp4620
(dp4621
g72
(dp4622
sg81
g4616
sg74
(lp4623
g67
(g68
g69
NtRp4624
(dp4625
g72
(dp4626
g80
I1
ssg81
g4620
sg74
(lp4627
I00
asbasbasbag67
(g83
g69
NtRp4628
(dp4629
g72
(dp4630
sg81
g4599
sg74
(lp4631
g67
(g88
g69
NtRp4632
(dp4633
g72
(dp4634
sg81
g4628
sg74
(lp4635
g67
(g68
g69
NtRp4636
(dp4637
g72
(dp4638
g80
I1
ssg81
g4632
sg74
(lp4639
S'/admin/default/design/funback'
p4640
asbasbasbag67
(g83
g69
NtRp4641
(dp4642
g72
(dp4643
sg81
g4599
sg74
(lp4644
g67
(g88
g69
NtRp4645
(dp4646
g72
(dp4647
sg81
g4641
sg74
(lp4648
g67
(g68
g69
NtRp4649
(dp4650
g72
(dp4651
g80
I1
ssg81
g4645
sg74
(lp4652
(lp4653
(g4415
(S't\n\x00\x00\x00Controller'
tRp4654
I00
S'/admin/default/edit/funback/controllers/account.py'
tp4655
a(g4415
(S't\x04\x00\x00\x00View'
tRp4656
I00
S'/admin/default/edit/funback/views/account/register.html'
tp4657
a(g4415
(S't\x06\x00\x00\x00Layout'
tRp4658
I00
S'/admin/default/edit/funback/views/layout.html'
tp4659
a(g4415
(S't\n\x00\x00\x00Stylesheet'
tRp4660
I00
S'/admin/default/edit/funback/static/css/web2py.css'
tp4661
a(g4415
(S's\x08\x00\x00\x00DB Model'
tRp4662
I00
S'/admin/default/edit/funback/models/db.py'
tp4663
a(g4415
(S's\n\x00\x00\x00Menu Model'
tRp4664
I00
S'/admin/default/edit/funback/models/menu.py'
tp4665
a(g4415
(S't\x08\x00\x00\x00Database'
tRp4666
I00
S'/funback/appadmin/index'
tp4667
a(g4415
(S't\x06\x00\x00\x00Errors'
tRp4668
I00
S'/admin/default/errors/funback'
tp4669
a(g4415
(S't\x05\x00\x00\x00About'
tRp4670
I00
S'/admin/default/about/funback'
tp4671
aasbasbasbasbasbasbasbag67
(g83
g69
NtRp4672
(dp4673
g72
(dp4674
sg81
g4529
sg74
(lp4675
g67
(g88
g69
NtRp4676
(dp4677
g72
(dp4678
sg81
g4672
sg74
(lp4679
g67
(g68
g69
NtRp4680
(dp4681
g72
(dp4682
g80
I2
ssg81
g4676
sg74
(lp4683
g67
(g76
g69
NtRp4684
(dp4685
g72
(dp4686
g80
I1
ssg81
Nsg74
(lp4687
g67
(g83
g69
NtRp4688
(dp4689
g72
(dp4690
sg81
g4684
sg74
(lp4691
g67
(g88
g69
NtRp4692
(dp4693
g72
(dp4694
sg81
g4688
sg74
(lp4695
g67
(g68
g69
NtRp4696
(dp4697
g72
(dp4698
g80
I1
ssg81
g4692
sg74
(lp4699
S'web2py.com'
p4700
asbasbasbag67
(g83
g69
NtRp4701
(dp4702
g72
(dp4703
sg81
g4684
sg74
(lp4704
g67
(g88
g69
NtRp4705
(dp4706
g72
(dp4707
sg81
g4701
sg74
(lp4708
g67
(g68
g69
NtRp4709
(dp4710
g72
(dp4711
g80
I1
ssg81
g4705
sg74
(lp4712
I00
asbasbasbag67
(g83
g69
NtRp4713
(dp4714
g72
(dp4715
sg81
g4684
sg74
(lp4716
g67
(g88
g69
NtRp4717
(dp4718
g72
(dp4719
sg81
g4713
sg74
(lp4720
g67
(g68
g69
NtRp4721
(dp4722
g72
(dp4723
g80
I1
ssg81
g4717
sg74
(lp4724
S'http://www.web2py.com'
p4725
asbasbasbag67
(g83
g69
NtRp4726
(dp4727
g72
(dp4728
sg81
g4684
sg74
(lp4729
g67
(g88
g69
NtRp4730
(dp4731
g72
(dp4732
sg81
g4726
sg74
(lp4733
g67
(g68
g69
NtRp4734
(dp4735
g72
(dp4736
g80
I1
ssg81
g4730
sg74
(lp4737
(lp4738
(g4415
(S't\x08\x00\x00\x00Download'
tRp4739
I00
S'http://www.web2py.com/examples/default/download'
p4740
tp4741
a(g4415
(S't\x07\x00\x00\x00Support'
tRp4742
I00
S'http://www.web2py.com/examples/default/support'
p4743
tp4744
a(g4415
(S't\x04\x00\x00\x00Demo'
tRp4745
I00
S'http://web2py.com/demo_admin'
p4746
tp4747
a(g4415
(S's\x0e\x00\x00\x00Quick Examples'
tRp4748
I00
S'http://web2py.com/examples/default/examples'
p4749
tp4750
a(g4415
(S't\x03\x00\x00\x00FAQ'
tRp4751
I00
S'http://web2py.com/AlterEgo'
p4752
tp4753
a(g4415
(S't\x06\x00\x00\x00Videos'
tRp4754
I00
S'http://www.web2py.com/examples/default/videos/'
p4755
tp4756
a(g4415
(S's\x11\x00\x00\x00Free Applications'
tRp4757
I00
S'http://web2py.com/appliances'
p4758
tp4759
a(g4415
(S't\x07\x00\x00\x00Plugins'
tRp4760
I00
S'http://web2py.com/plugins'
p4761
tp4762
a(g4415
(S't\x07\x00\x00\x00Layouts'
tRp4763
I00
S'http://web2py.com/layouts'
p4764
tp4765
a(g4415
(S't\x07\x00\x00\x00Recipes'
tRp4766
I00
S'http://web2pyslices.com/'
p4767
tp4768
a(g4415
(S't\x08\x00\x00\x00Semantic'
tRp4769
I00
S'http://web2py.com/semantic'
p4770
tp4771
aasbasbasbasbasbasbasbag67
(g83
g69
NtRp4772
(dp4773
g72
(dp4774
sg81
g4529
sg74
(lp4775
g67
(g88
g69
NtRp4776
(dp4777
g72
(dp4778
sg81
g4772
sg74
(lp4779
g67
(g68
g69
NtRp4780
(dp4781
g72
(dp4782
g80
I2
ssg81
g4776
sg74
(lp4783
g67
(g76
g69
NtRp4784
(dp4785
g72
(dp4786
g80
I1
ssg81
Nsg74
(lp4787
g67
(g83
g69
NtRp4788
(dp4789
g72
(dp4790
sg81
g4784
sg74
(lp4791
g67
(g88
g69
NtRp4792
(dp4793
g72
(dp4794
sg81
g4788
sg74
(lp4795
g67
(g68
g69
NtRp4796
(dp4797
g72
(dp4798
g80
I1
ssg81
g4792
sg74
(lp4799
g4415
(S't\r\x00\x00\x00Documentation'
tRp4800
asbasbasbag67
(g83
g69
NtRp4801
(dp4802
g72
(dp4803
sg81
g4784
sg74
(lp4804
g67
(g88
g69
NtRp4805
(dp4806
g72
(dp4807
sg81
g4801
sg74
(lp4808
g67
(g68
g69
NtRp4809
(dp4810
g72
(dp4811
g80
I1
ssg81
g4805
sg74
(lp4812
I00
asbasbasbag67
(g83
g69
NtRp4813
(dp4814
g72
(dp4815
sg81
g4784
sg74
(lp4816
g67
(g88
g69
NtRp4817
(dp4818
g72
(dp4819
sg81
g4813
sg74
(lp4820
g67
(g68
g69
NtRp4821
(dp4822
g72
(dp4823
g80
I1
ssg81
g4817
sg74
(lp4824
S'http://www.web2py.com/book'
p4825
asbasbasbag67
(g83
g69
NtRp4826
(dp4827
g72
(dp4828
sg81
g4784
sg74
(lp4829
g67
(g88
g69
NtRp4830
(dp4831
g72
(dp4832
sg81
g4826
sg74
(lp4833
g67
(g68
g69
NtRp4834
(dp4835
g72
(dp4836
g80
I1
ssg81
g4830
sg74
(lp4837
(lp4838
(g4415
(S't\x07\x00\x00\x00Preface'
tRp4839
I00
S'http://www.web2py.com/book/default/chapter/00'
p4840
tp4841
a(g4415
(S't\x0c\x00\x00\x00Introduction'
tRp4842
I00
S'http://www.web2py.com/book/default/chapter/01'
p4843
tp4844
a(g4415
(S't\x06\x00\x00\x00Python'
tRp4845
I00
S'http://www.web2py.com/book/default/chapter/02'
p4846
tp4847
a(g4415
(S't\x08\x00\x00\x00Overview'
tRp4848
I00
S'http://www.web2py.com/book/default/chapter/03'
p4849
tp4850
a(g4415
(S's\x08\x00\x00\x00The Core'
tRp4851
I00
S'http://www.web2py.com/book/default/chapter/04'
p4852
tp4853
a(g4415
(S's\t\x00\x00\x00The Views'
tRp4854
I00
S'http://www.web2py.com/book/default/chapter/05'
p4855
tp4856
a(g4415
(S't\x08\x00\x00\x00Database'
tRp4857
I00
S'http://www.web2py.com/book/default/chapter/06'
p4858
tp4859
a(g4415
(S's\x14\x00\x00\x00Forms and Validators'
tRp4860
I00
S'http://www.web2py.com/book/default/chapter/07'
p4861
tp4862
a(g4415
(S's\r\x00\x00\x00Email and SMS'
tRp4863
I00
S'http://www.web2py.com/book/default/chapter/08'
p4864
tp4865
a(g4415
(S's\x0e\x00\x00\x00Access Control'
tRp4866
I00
S'http://www.web2py.com/book/default/chapter/09'
p4867
tp4868
a(g4415
(S't\x08\x00\x00\x00Services'
tRp4869
I00
S'http://www.web2py.com/book/default/chapter/10'
p4870
tp4871
a(g4415
(S's\x0c\x00\x00\x00Ajax Recipes'
tRp4872
I00
S'http://www.web2py.com/book/default/chapter/11'
p4873
tp4874
a(g4415
(S's\x16\x00\x00\x00Components and Plugins'
tRp4875
I00
S'http://www.web2py.com/book/default/chapter/12'
p4876
tp4877
a(g4415
(S's\x12\x00\x00\x00Deployment Recipes'
tRp4878
I00
S'http://www.web2py.com/book/default/chapter/13'
p4879
tp4880
a(g4415
(S's\r\x00\x00\x00Other Recipes'
tRp4881
I00
S'http://www.web2py.com/book/default/chapter/14'
p4882
tp4883
a(g4415
(S's\r\x00\x00\x00Buy this book'
tRp4884
I00
S'http://stores.lulu.com/web2py'
p4885
tp4886
aasbasbasbasbasbasbasbag67
(g83
g69
NtRp4887
(dp4888
g72
(dp4889
sg81
g4529
sg74
(lp4890
g67
(g88
g69
NtRp4891
(dp4892
g72
(dp4893
sg81
g4887
sg74
(lp4894
g67
(g68
g69
NtRp4895
(dp4896
g72
(dp4897
g80
I2
ssg81
g4891
sg74
(lp4898
g67
(g76
g69
NtRp4899
(dp4900
g72
(dp4901
g80
I1
ssg81
Nsg74
(lp4902
g67
(g83
g69
NtRp4903
(dp4904
g72
(dp4905
sg81
g4899
sg74
(lp4906
g67
(g88
g69
NtRp4907
(dp4908
g72
(dp4909
sg81
g4903
sg74
(lp4910
g67
(g68
g69
NtRp4911
(dp4912
g72
(dp4913
g80
I1
ssg81
g4907
sg74
(lp4914
g4415
(S't\t\x00\x00\x00Community'
tRp4915
asbasbasbag67
(g83
g69
NtRp4916
(dp4917
g72
(dp4918
sg81
g4899
sg74
(lp4919
g67
(g88
g69
NtRp4920
(dp4921
g72
(dp4922
sg81
g4916
sg74
(lp4923
g67
(g68
g69
NtRp4924
(dp4925
g72
(dp4926
g80
I1
ssg81
g4920
sg74
(lp4927
I00
asbasbasbag67
(g83
g69
NtRp4928
(dp4929
g72
(dp4930
sg81
g4899
sg74
(lp4931
g67
(g88
g69
NtRp4932
(dp4933
g72
(dp4934
sg81
g4928
sg74
(lp4935
g67
(g68
g69
NtRp4936
(dp4937
g72
(dp4938
g80
I1
ssg81
g4932
sg74
(lp4939
Nasbasbasbag67
(g83
g69
NtRp4940
(dp4941
g72
(dp4942
sg81
g4899
sg74
(lp4943
g67
(g88
g69
NtRp4944
(dp4945
g72
(dp4946
sg81
g4940
sg74
(lp4947
g67
(g68
g69
NtRp4948
(dp4949
g72
(dp4950
g80
I1
ssg81
g4944
sg74
(lp4951
(lp4952
(g4415
(S't\x06\x00\x00\x00Groups'
tRp4953
I00
S'http://www.web2py.com/examples/default/usergroups'
p4954
tp4955
a(g4415
(S't\x07\x00\x00\x00Twitter'
tRp4956
I00
S'http://twitter.com/web2py'
p4957
tp4958
a(g4415
(S's\t\x00\x00\x00Live Chat'
tRp4959
I00
S'http://webchat.freenode.net/?channels=web2py'
p4960
tp4961
aasbasbasbasbasbasbasbag67
(g83
g69
NtRp4962
(dp4963
g72
(dp4964
sg81
g4529
sg74
(lp4965
g67
(g88
g69
NtRp4966
(dp4967
g72
(dp4968
sg81
g4962
sg74
(lp4969
g67
(g68
g69
NtRp4970
(dp4971
g72
(dp4972
g80
I2
ssg81
g4966
sg74
(lp4973
g67
(g76
g69
NtRp4974
(dp4975
g72
(dp4976
g80
I1
ssg81
Nsg74
(lp4977
g67
(g83
g69
NtRp4978
(dp4979
g72
(dp4980
sg81
g4974
sg74
(lp4981
g67
(g88
g69
NtRp4982
(dp4983
g72
(dp4984
sg81
g4978
sg74
(lp4985
g67
(g68
g69
NtRp4986
(dp4987
g72
(dp4988
g80
I1
ssg81
g4982
sg74
(lp4989
g4415
(S't\x07\x00\x00\x00Plugins'
tRp4990
asbasbasbag67
(g83
g69
NtRp4991
(dp4992
g72
(dp4993
sg81
g4974
sg74
(lp4994
g67
(g88
g69
NtRp4995
(dp4996
g72
(dp4997
sg81
g4991
sg74
(lp4998
g67
(g68
g69
NtRp4999
(dp5000
g72
(dp5001
g80
I1
ssg81
g4995
sg74
(lp5002
I00
asbasbasbag67
(g83
g69
NtRp5003
(dp5004
g72
(dp5005
sg81
g4974
sg74
(lp5006
g67
(g88
g69
NtRp5007
(dp5008
g72
(dp5009
sg81
g5003
sg74
(lp5010
g67
(g68
g69
NtRp5011
(dp5012
g72
(dp5013
g80
I1
ssg81
g5007
sg74
(lp5014
Nasbasbasbag67
(g83
g69
NtRp5015
(dp5016
g72
(dp5017
sg81
g4974
sg74
(lp5018
g67
(g88
g69
NtRp5019
(dp5020
g72
(dp5021
sg81
g5015
sg74
(lp5022
g67
(g68
g69
NtRp5023
(dp5024
g72
(dp5025
g80
I1
ssg81
g5019
sg74
(lp5026
(lp5027
(S'plugin_wiki'
p5028
I00
S'http://web2py.com/examples/default/download'
p5029
tp5030
a(g4415
(S's\r\x00\x00\x00Other Plugins'
tRp5031
I00
g4761
tp5032
a(g4415
(S's\x0e\x00\x00\x00Layout Plugins'
tRp5033
I00
g4764
tp5034
aasbasbasbasbasbasbasbasbasbasbasbasbasbasbasbasbasbasbasbag67
(g83
g69
NtRp5035
(dp5036
g72
(dp5037
sg81
g3871
sg74
(lp5038
g67
(g88
g69
NtRp5039
(dp5040
g72
(dp5041
g92
g93
ssg81
g5035
sg74
(lp5042
S'meta'
p5043
asbag67
(g88
g69
NtRp5044
(dp5045
g72
(dp5046
g99
g100
ssg81
g5035
sg74
(lp5047
S':'
asbag67
(g88
g69
NtRp5048
(dp5049
g72
(dp5050
sg81
g5035
sg74
(lp5051
g67
(g68
g69
NtRp5052
(dp5053
g72
(dp5054
g80
I5
ssg81
g5048
sg74
(lp5055
g67
(g76
g69
NtRp5056
(dp5057
g72
(dp5058
g80
I4
ssg81
Nsg74
(lp5059
g67
(g83
g69
NtRp5060
(dp5061
g72
(dp5062
sg81
g5056
sg74
(lp5063
g67
(g88
g69
NtRp5064
(dp5065
g72
(dp5066
g92
g93
ssg81
g5060
sg74
(lp5067
S'author'
p5068
asbag67
(g88
g69
NtRp5069
(dp5070
g72
(dp5071
g99
g100
ssg81
g5060
sg74
(lp5072
S':'
asbag67
(g88
g69
NtRp5073
(dp5074
g72
(dp5075
sg81
g5060
sg74
(lp5076
g67
(g68
g69
NtRp5077
(dp5078
g72
(dp5079
g80
I4
ssg81
g5073
sg74
(lp5080
S'Your Name <you@example.com>'
p5081
asbasbasbag67
(g83
g69
NtRp5082
(dp5083
g72
(dp5084
sg81
g5056
sg74
(lp5085
g67
(g88
g69
NtRp5086
(dp5087
g72
(dp5088
g92
g93
ssg81
g5082
sg74
(lp5089
S'copyright'
p5090
asbag67
(g88
g69
NtRp5091
(dp5092
g72
(dp5093
g99
g100
ssg81
g5082
sg74
(lp5094
S':'
asbag67
(g88
g69
NtRp5095
(dp5096
g72
(dp5097
sg81
g5082
sg74
(lp5098
g67
(g68
g69
NtRp5099
(dp5100
g72
(dp5101
g80
I4
ssg81
g5095
sg74
(lp5102
S'Copyright 2011'
p5103
asbasbasbag67
(g83
g69
NtRp5104
(dp5105
g72
(dp5106
sg81
g5056
sg74
(lp5107
g67
(g88
g69
NtRp5108
(dp5109
g72
(dp5110
g92
g93
ssg81
g5104
sg74
(lp5111
S'description'
p5112
asbag67
(g88
g69
NtRp5113
(dp5114
g72
(dp5115
g99
g100
ssg81
g5104
sg74
(lp5116
S':'
asbag67
(g88
g69
NtRp5117
(dp5118
g72
(dp5119
sg81
g5104
sg74
(lp5120
g67
(g68
g69
NtRp5121
(dp5122
g72
(dp5123
g80
I4
ssg81
g5117
sg74
(lp5124
S'a cool new app'
p5125
asbasbasbag67
(g83
g69
NtRp5126
(dp5127
g72
(dp5128
sg81
g5056
sg74
(lp5129
g67
(g88
g69
NtRp5130
(dp5131
g72
(dp5132
g92
g93
ssg81
g5126
sg74
(lp5133
S'generator'
p5134
asbag67
(g88
g69
NtRp5135
(dp5136
g72
(dp5137
g99
g100
ssg81
g5126
sg74
(lp5138
S':'
asbag67
(g88
g69
NtRp5139
(dp5140
g72
(dp5141
sg81
g5126
sg74
(lp5142
g67
(g68
g69
NtRp5143
(dp5144
g72
(dp5145
g80
I4
ssg81
g5139
sg74
(lp5146
S'Web2py Web Framework'
p5147
asbasbasbag67
(g83
g69
NtRp5148
(dp5149
g72
(dp5150
sg81
g5056
sg74
(lp5151
g67
(g88
g69
NtRp5152
(dp5153
g72
(dp5154
g92
g93
ssg81
g5148
sg74
(lp5155
S'keywords'
p5156
asbag67
(g88
g69
NtRp5157
(dp5158
g72
(dp5159
g99
g100
ssg81
g5148
sg74
(lp5160
S':'
asbag67
(g88
g69
NtRp5161
(dp5162
g72
(dp5163
sg81
g5148
sg74
(lp5164
g67
(g68
g69
NtRp5165
(dp5166
g72
(dp5167
g80
I4
ssg81
g5161
sg74
(lp5168
S'web2py, python, framework'
p5169
asbasbasbasbasbasbasbag67
(g83
g69
NtRp5170
(dp5171
g72
(dp5172
sg81
g3871
sg74
(lp5173
g67
(g88
g69
NtRp5174
(dp5175
g72
(dp5176
g92
g93
ssg81
g5170
sg74
(lp5177
S'postprocessing'
p5178
asbag67
(g88
g69
NtRp5179
(dp5180
g72
(dp5181
g99
g100
ssg81
g5170
sg74
(lp5182
S':'
asbag67
(g88
g69
NtRp5183
(dp5184
g72
(dp5185
sg81
g5170
sg74
(lp5186
g67
(g68
g69
NtRp5187
(dp5188
g72
(dp5189
g80
I5
ssg81
g5183
sg74
(lp5190
g67
(g76
g69
NtRp5191
(dp5192
g72
(dp5193
g80
I4
ssg81
Nsg74
(lp5194
sbasbasbasbag67
(g83
g69
NtRp5195
(dp5196
g72
(dp5197
sg81
g3871
sg74
(lp5198
g67
(g88
g69
NtRp5199
(dp5200
g72
(dp5201
g92
g93
ssg81
g5195
sg74
(lp5202
S'session_file'
p5203
asbag67
(g88
g69
NtRp5204
(dp5205
g72
(dp5206
g99
g100
ssg81
g5195
sg74
(lp5207
S':'
asbag67
(g88
g69
NtRp5208
(dp5209
g72
(dp5210
sg81
g5195
sg74
(lp5211
g67
(g68
g69
NtRp5212
(dp5213
g72
(dp5214
g80
I5
ssg81
g5208
sg74
(lp5215
S"<open file '/Users/cyan/Package/GitHub/funback/web2py/applications/funback/sessions/127.0.0.1-e25f12f5-78b1-4973-96b7-3e18a5eced54', mode 'rb+' at 0x117f88b70>"
p5216
asbasbasbag67
(g83
g69
NtRp5217
(dp5218
g72
(dp5219
sg81
g3871
sg74
(lp5220
g67
(g88
g69
NtRp5221
(dp5222
g72
(dp5223
g92
g93
ssg81
g5217
sg74
(lp5224
S'session_filename'
p5225
asbag67
(g88
g69
NtRp5226
(dp5227
g72
(dp5228
g99
g100
ssg81
g5217
sg74
(lp5229
S':'
asbag67
(g88
g69
NtRp5230
(dp5231
g72
(dp5232
sg81
g5217
sg74
(lp5233
g67
(g68
g69
NtRp5234
(dp5235
g72
(dp5236
g80
I5
ssg81
g5230
sg74
(lp5237
S'/Users/cyan/Package/GitHub/funback/web2py/applications/funback/sessions/127.0.0.1-e25f12f5-78b1-4973-96b7-3e18a5eced54'
p5238
asbasbasbag67
(g83
g69
NtRp5239
(dp5240
g72
(dp5241
sg81
g3871
sg74
(lp5242
g67
(g88
g69
NtRp5243
(dp5244
g72
(dp5245
g92
g93
ssg81
g5239
sg74
(lp5246
S'session_id'
p5247
asbag67
(g88
g69
NtRp5248
(dp5249
g72
(dp5250
g99
g100
ssg81
g5239
sg74
(lp5251
S':'
asbag67
(g88
g69
NtRp5252
(dp5253
g72
(dp5254
sg81
g5239
sg74
(lp5255
g67
(g68
g69
NtRp5256
(dp5257
g72
(dp5258
g80
I5
ssg81
g5252
sg74
(lp5259
S'127.0.0.1-e25f12f5-78b1-4973-96b7-3e18a5eced54'
p5260
asbasbasbag67
(g83
g69
NtRp5261
(dp5262
g72
(dp5263
sg81
g3871
sg74
(lp5264
g67
(g88
g69
NtRp5265
(dp5266
g72
(dp5267
g92
g93
ssg81
g5261
sg74
(lp5268
S'session_id_name'
p5269
asbag67
(g88
g69
NtRp5270
(dp5271
g72
(dp5272
g99
g100
ssg81
g5261
sg74
(lp5273
S':'
asbag67
(g88
g69
NtRp5274
(dp5275
g72
(dp5276
sg81
g5261
sg74
(lp5277
g67
(g68
g69
NtRp5278
(dp5279
g72
(dp5280
g80
I5
ssg81
g5274
sg74
(lp5281
g3928
asbasbasbag67
(g83
g69
NtRp5282
(dp5283
g72
(dp5284
sg81
g3871
sg74
(lp5285
g67
(g88
g69
NtRp5286
(dp5287
g72
(dp5288
g92
g93
ssg81
g5282
sg74
(lp5289
S'session_locked'
p5290
asbag67
(g88
g69
NtRp5291
(dp5292
g72
(dp5293
g99
g100
ssg81
g5282
sg74
(lp5294
S':'
asbag67
(g88
g69
NtRp5295
(dp5296
g72
(dp5297
sg81
g5282
sg74
(lp5298
g67
(g68
g69
NtRp5299
(dp5300
g72
(dp5301
g80
I5
ssg81
g5295
sg74
(lp5302
g1818
asbasbasbag67
(g83
g69
NtRp5303
(dp5304
g72
(dp5305
sg81
g3871
sg74
(lp5306
g67
(g88
g69
NtRp5307
(dp5308
g72
(dp5309
g92
g93
ssg81
g5303
sg74
(lp5310
S'session_new'
p5311
asbag67
(g88
g69
NtRp5312
(dp5313
g72
(dp5314
g99
g100
ssg81
g5303
sg74
(lp5315
S':'
asbag67
(g88
g69
NtRp5316
(dp5317
g72
(dp5318
sg81
g5303
sg74
(lp5319
g67
(g68
g69
NtRp5320
(dp5321
g72
(dp5322
g80
I5
ssg81
g5316
sg74
(lp5323
g110
asbasbasbag67
(g83
g69
NtRp5324
(dp5325
g72
(dp5326
sg81
g3871
sg74
(lp5327
g67
(g88
g69
NtRp5328
(dp5329
g72
(dp5330
g92
g93
ssg81
g5324
sg74
(lp5331
S'status'
p5332
asbag67
(g88
g69
NtRp5333
(dp5334
g72
(dp5335
g99
g100
ssg81
g5324
sg74
(lp5336
S':'
asbag67
(g88
g69
NtRp5337
(dp5338
g72
(dp5339
sg81
g5324
sg74
(lp5340
g67
(g68
g69
NtRp5341
(dp5342
g72
(dp5343
g80
I5
ssg81
g5337
sg74
(lp5344
S'200'
p5345
asbasbasbag67
(g83
g69
NtRp5346
(dp5347
g72
(dp5348
sg81
g3871
sg74
(lp5349
g67
(g88
g69
NtRp5350
(dp5351
g72
(dp5352
g92
g93
ssg81
g5346
sg74
(lp5353
S'subtitle'
p5354
asbag67
(g88
g69
NtRp5355
(dp5356
g72
(dp5357
g99
g100
ssg81
g5346
sg74
(lp5358
S':'
asbag67
(g88
g69
NtRp5359
(dp5360
g72
(dp5361
sg81
g5346
sg74
(lp5362
g67
(g68
g69
NtRp5363
(dp5364
g72
(dp5365
g80
I5
ssg81
g5359
sg74
(lp5366
g4415
(S's\r\x00\x00\x00customize me!'
tRp5367
asbasbasbag67
(g83
g69
NtRp5368
(dp5369
g72
(dp5370
sg81
g3871
sg74
(lp5371
g67
(g88
g69
NtRp5372
(dp5373
g72
(dp5374
g92
g93
ssg81
g5368
sg74
(lp5375
S'title'
p5376
asbag67
(g88
g69
NtRp5377
(dp5378
g72
(dp5379
g99
g100
ssg81
g5368
sg74
(lp5380
S':'
asbag67
(g88
g69
NtRp5381
(dp5382
g72
(dp5383
sg81
g5368
sg74
(lp5384
g67
(g68
g69
NtRp5385
(dp5386
g72
(dp5387
g80
I5
ssg81
g5381
sg74
(lp5388
S'Funback'
p5389
asbasbasbag67
(g83
g69
NtRp5390
(dp5391
g72
(dp5392
sg81
g3871
sg74
(lp5393
g67
(g88
g69
NtRp5394
(dp5395
g72
(dp5396
g92
g93
ssg81
g5390
sg74
(lp5397
g2548
asbag67
(g88
g69
NtRp5398
(dp5399
g72
(dp5400
g99
g100
ssg81
g5390
sg74
(lp5401
S':'
asbag67
(g88
g69
NtRp5402
(dp5403
g72
(dp5404
sg81
g5390
sg74
(lp5405
g67
(g68
g69
NtRp5406
(dp5407
g72
(dp5408
g80
I5
ssg81
g5402
sg74
(lp5409
g2561
asbasbasbag67
(g83
g69
NtRp5410
(dp5411
g72
(dp5412
sg81
g3871
sg74
(lp5413
g67
(g88
g69
NtRp5414
(dp5415
g72
(dp5416
g92
g93
ssg81
g5410
sg74
(lp5417
S'view'
p5418
asbag67
(g88
g69
NtRp5419
(dp5420
g72
(dp5421
g99
g100
ssg81
g5410
sg74
(lp5422
S':'
asbag67
(g88
g69
NtRp5423
(dp5424
g72
(dp5425
sg81
g5410
sg74
(lp5426
g67
(g68
g69
NtRp5427
(dp5428
g72
(dp5429
g80
I5
ssg81
g5423
sg74
(lp5430
S'account/register.html'
p5431
asbasbasbasbasbsS'locals'
p5432
(dp5433
S'a'
S'("SELECT  user_login.id, user_login.first_name, us....ac.uk\') ORDER BY user_login.id LIMIT 1 OFFSET 0;",)'
p5434
sS'self'
p5435
S'<gluon.dal.PostgreSQLAdapter object>'
p5436
sS'b'
g3772
sS't0'
p5437
S'1334685306.978853'
p5438
sssS'traceback'
p5439
S'Traceback (most recent call last):\n  File "/Users/cyan/Package/GitHub/funback/web2py/gluon/restricted.py", line 205, in restricted\n    exec ccode in environment\n  File "/Users/cyan/Package/GitHub/funback/web2py/applications/funback/controllers/account.py", line 99, in <module>\n  File "/Users/cyan/Package/GitHub/funback/web2py/gluon/globals.py", line 173, in <lambda>\n    self._caller = lambda f: f()\n  File "/Users/cyan/Package/GitHub/funback/web2py/applications/funback/controllers/account.py", line 27, in register\n    if form.process().accepted:\n  File "/Users/cyan/Package/GitHub/funback/web2py/gluon/html.py", line 1994, in process\n    self.validate(**kwargs)\n  File "/Users/cyan/Package/GitHub/funback/web2py/gluon/html.py", line 1941, in validate\n    if self.accepts(**kwargs):\n  File "/Users/cyan/Package/GitHub/funback/web2py/gluon/sqlhtml.py", line 1089, in accepts\n    hideerror=hideerror,\n  File "/Users/cyan/Package/GitHub/funback/web2py/gluon/html.py", line 1841, in accepts\n    status = self._traverse(status,hideerror)\n  File "/Users/cyan/Package/GitHub/funback/web2py/gluon/html.py", line 781, in _traverse\n    newstatus = c._traverse(status,hideerror) and newstatus\n  File "/Users/cyan/Package/GitHub/funback/web2py/gluon/html.py", line 781, in _traverse\n    newstatus = c._traverse(status,hideerror) and newstatus\n  File "/Users/cyan/Package/GitHub/funback/web2py/gluon/html.py", line 781, in _traverse\n    newstatus = c._traverse(status,hideerror) and newstatus\n  File "/Users/cyan/Package/GitHub/funback/web2py/gluon/html.py", line 781, in _traverse\n    newstatus = c._traverse(status,hideerror) and newstatus\n  File "/Users/cyan/Package/GitHub/funback/web2py/gluon/html.py", line 788, in _traverse\n    newstatus = self._validate()\n  File "/Users/cyan/Package/GitHub/funback/web2py/gluon/html.py", line 1606, in _validate\n    (value, errors) = validator(value)\n  File "/Users/cyan/Package/GitHub/funback/web2py/gluon/validators.py", line 546, in __call__\n    rows = self.dbset(field == value, ignore_common_filters = self.ignore_common_filters).select(limitby=(0, 1))\n  File "/Users/cyan/Package/GitHub/funback/web2py/gluon/dal.py", line 7578, in select\n    return adapter.select(self.query,fields,attributes)\n  File "/Users/cyan/Package/GitHub/funback/web2py/gluon/dal.py", line 1315, in select\n    rows = response(sql)\n  File "/Users/cyan/Package/GitHub/funback/web2py/gluon/dal.py", line 1305, in response\n    self.execute(sql)\n  File "/Users/cyan/Package/GitHub/funback/web2py/gluon/dal.py", line 1392, in execute\n    return self.log_execute(*a, **b)\n  File "/Users/cyan/Package/GitHub/funback/web2py/gluon/dal.py", line 1386, in log_execute\n    ret = self.cursor.execute(*a, **b)\nProgrammingError: relation "user_login" does not exist\nLINE 1: ...set_password_key, user_login.registration_id FROM user_login...\n                                                             ^\n\n'
p5440
s.