(dp1
S'output'
p2
S'<class \'psycopg2.ProgrammingError\'> relation "user_login" already exists\n'
p3
sS'layer'
p4
S'/Users/cyan/Package/GitHub/funback/web2py/applications/funback/models/account.py'
p5
sS'code'
p6
S'#########################################\n## database model for account services ##\n#########################################\n\n## use PostgreSQL on dotcloud (staging/production)\n##db = DAL("pgsql://root:kZ2AxFUntkfwlBGCEa1N@funback-Cilia.dotcloud.com:21133")\n\n## use PostgreSQL on localhost (testing/qa)\ndb = DAL("postgres://cyan:opennow330@localhost/funback")\n\n## setup logging facilities for debugging purposes\nimport logging\nlogger = logging.getLogger("web2py.app.funback")\nlogger.setLevel(logging.DEBUG)\n\n#####################################\n## web2py authentication utilities ##\n#####################################\n\nfrom gluon.tools import Auth\nauth = Auth(db, hmac_key=Auth.get_or_create_key())\n\n## configure email\nmail = auth.settings.mailer\nmail.settings.server = \'smtp.gmail.com:587\'\nmail.settings.sender = \'funback.message@gmail.com\'\nmail.settings.login = \'funback.message:opennow123\'\n\n## for the use of reCAPTCHA (with publicly visible site only)\n#auth.settings.captcha = Recaptcha(request, \'PUBLIC_KEY\', \'PRIVATE_KEY\', option="theme:\'clean\', lang:\'en\'")\n\n## re-name the authentication tables\nauth.settings.table_user_name = "user_login"\nauth.settings.table_group_name = "user_group"\nauth.settings.table_membership_name = "user_membership"\nauth.settings.table_permission_name = "user_permission"\nauth.settings.table_event_name = "user_event"\n\n## create all tables needed by Auth\nauth.define_tables()\n\n## disable the default group creation behavior upon each user creation\nauth.settings.create_user_groups = False\n## turn on email verification upon registration and password reset\nauth.settings.registration_requires_verification = True\nauth.settings.reset_password_requires_verification = True\nauth.settings.register_next = URL(\'registered\')\n## might need to change this for company users\n#auth.settings.registration_requires_approval = False \n\n## set the content of the verification email\nauth.messages.verify_email = \'Please click on the link: http://\' + \\\n     request.env.http_host + \\\n     URL(r=request, c=\'account\', f=\'verify_email\') + \\\n     \'/%(key)s to verify your email address\'\nlogger.debug("verification email content: %s" % auth.messages.verify_email)\n\n## customize the Auth tables\n## abandon (but not remove) \'first_name\' and \'last_name\' from user_login table\n\ndb.user_login.first_name.writable = db.user_login.last_name.writable = False\ndb.user_login.first_name.readable = db.user_login.last_name.readable = False\n## set the email requirement\ndb.user_login.email.requires = [IS_NOT_EMPTY(), \n                             IS_EMAIL(),\n                             IS_NOT_IN_DB(db, \'user_login.email\')]\n#forced=\'^.*\\.edu(|\\..*)$\', error_message=\'Email must be an .edu address\' \n \n## set the password requirement\ndb.user_login.password.requires = [IS_NOT_EMPTY(), \n                                IS_STRONG(min=7, special=0, upper=0, number=0, error_message=\'Minimum 7 characters\'), \n                                CRYPT()]\n\n## setup the user group structure (should be setup one-for-all outside the app)\n#auth.add_group(\'prospect\', \'participants of events\')\n#auth.add_group(\'prospector\', \'hosts of events\')\n\n######################\n## Custom DB tables ##\n######################\n\n#db.define_table(\'login\',\n#    Field(\'email\', length=96, required=True, unique=True),\n#    Field(\'pwd\', length=36, required=True, readable=False, writable=False))\n\n#db.login.email.requires=[IS_EMAIL(), IS_NOT_IN_DB(db, \'login.email\')]\n#db.login.pwd.requires=[IS_NOT_EMPTY(), IS_STRONG(min=6, special=0, upper=1), CRYPT()]\n\ndb.define_table(\'participant\',\n    Field(\'login_id\', db.user_login, readable=False, writable=False),\n    Field(\'first_name\', length=128, required=True),\n    Field(\'last_name\', length=128, required=True),\n    Field(\'sex\', required=True),\n    Field(\'dob\', \'date\'),\n    Field(\'country\'),\n    format=\'%(first_name)s %(last_name)s\')\n\ndb.participant.sex.requires = IS_IN_SET([\'male\',\'female\'])\ndb.participant.country.requires = IS_IN_SET([\'United States\',\'United Kingdom\'])\ndb.participant.login_id.requires = IS_IN_DB(db, db.user_login.id, \'%(email)s\')'
p7
sS'snapshot'
p8
(dp9
S'exception'
p10
(dp11
S'__module__'
p12
S"'psycopg2'"
p13
sS'__getslice__'
p14
S"<method-wrapper '__getslice__' of ProgrammingError object>"
p15
sS'__str__'
p16
S"<method-wrapper '__str__' of ProgrammingError object>"
p17
sS'__reduce__'
p18
S'<built-in method __reduce__ of ProgrammingError object>'
p19
sS'__dict__'
p20
S'{\'cursor\': <cursor object at 0x11b544718; closed: 0>, \'pgcode\': \'42P07\', \'pgerror\': \'ERROR:  relation "user_login" already exists\\n\'}'
p21
sS'__sizeof__'
p22
S'<built-in method __sizeof__ of ProgrammingError object>'
p23
sS'__weakref__'
p24
S'None'
p25
sS'__init__'
p26
S"<method-wrapper '__init__' of ProgrammingError object>"
p27
sS'__setattr__'
p28
S"<method-wrapper '__setattr__' of ProgrammingError object>"
p29
sS'__reduce_ex__'
p30
S'<built-in method __reduce_ex__ of ProgrammingError object>'
p31
sS'__new__'
p32
S'<built-in method __new__ of type object>'
p33
sS'__format__'
p34
S'<built-in method __format__ of ProgrammingError object>'
p35
sS'__class__'
p36
S"<class 'psycopg2.ProgrammingError'>"
p37
sS'pgerror'
p38
S'\'ERROR:  relation "user_login" already exists\\n\''
p39
sS'__doc__'
p40
S"'Error related to database programming (SQL error, table not found etc).'"
p41
sS'__getitem__'
p42
S"<method-wrapper '__getitem__' of ProgrammingError object>"
p43
sS'__setstate__'
p44
S'<built-in method __setstate__ of ProgrammingError object>'
p45
sS'__getattribute__'
p46
S"<method-wrapper '__getattribute__' of ProgrammingError object>"
p47
sS'args'
p48
S'(\'relation "user_login" already exists\\n\',)'
p49
sS'__subclasshook__'
p50
S'<built-in method __subclasshook__ of type object>'
p51
sS'pgcode'
p52
S"'42P07'"
p53
sS'__unicode__'
p54
S'<built-in method __unicode__ of ProgrammingError object>'
p55
sS'cursor'
p56
S'<cursor object at 0x11b544718; closed: 0>'
p57
sS'__delattr__'
p58
S"<method-wrapper '__delattr__' of ProgrammingError object>"
p59
sS'__repr__'
p60
S"<method-wrapper '__repr__' of ProgrammingError object>"
p61
sS'__hash__'
p62
S"<method-wrapper '__hash__' of ProgrammingError object>"
p63
ssS'evalue'
p64
S'relation "user_login" already exists\n'
p65
sS'request'
p66
ccopy_reg
_reconstructor
p67
(cgluon.html
BEAUTIFY
p68
c__builtin__
object
p69
NtRp70
(dp71
S'attributes'
p72
(dp73
sS'components'
p74
(lp75
g67
(cgluon.html
TABLE
p76
g69
NtRp77
(dp78
g72
(dp79
S'level'
p80
I5
ssS'parent'
p81
Nsg74
(lp82
g67
(cgluon.html
TR
p83
g69
NtRp84
(dp85
g72
(dp86
sg81
g77
sg74
(lp87
g67
(cgluon.html
TD
p88
g69
NtRp89
(dp90
g72
(dp91
S'_style'
p92
S'font-weight:bold;vertical-align:top'
p93
ssg81
g84
sg74
(lp94
S'ajax'
p95
asbag67
(g88
g69
NtRp96
(dp97
g72
(dp98
S'_valign'
p99
S'top'
p100
ssg81
g84
sg74
(lp101
S':'
asbag67
(g88
g69
NtRp102
(dp103
g72
(dp104
sg81
g84
sg74
(lp105
g67
(g68
g69
NtRp106
(dp107
g72
(dp108
g80
I5
ssg81
g102
sg74
(lp109
S'False'
p110
asbasbasbag67
(g83
g69
NtRp111
(dp112
g72
(dp113
sg81
g77
sg74
(lp114
g67
(g88
g69
NtRp115
(dp116
g72
(dp117
g92
g93
ssg81
g111
sg74
(lp118
S'application'
p119
asbag67
(g88
g69
NtRp120
(dp121
g72
(dp122
g99
g100
ssg81
g111
sg74
(lp123
S':'
asbag67
(g88
g69
NtRp124
(dp125
g72
(dp126
sg81
g111
sg74
(lp127
g67
(g68
g69
NtRp128
(dp129
g72
(dp130
g80
I5
ssg81
g124
sg74
(lp131
S'funback'
p132
asbasbasbag67
(g83
g69
NtRp133
(dp134
g72
(dp135
sg81
g77
sg74
(lp136
g67
(g88
g69
NtRp137
(dp138
g72
(dp139
g92
g93
ssg81
g133
sg74
(lp140
g48
asbag67
(g88
g69
NtRp141
(dp142
g72
(dp143
g99
g100
ssg81
g133
sg74
(lp144
S':'
asbag67
(g88
g69
NtRp145
(dp146
g72
(dp147
sg81
g133
sg74
(lp148
g67
(g68
g69
NtRp149
(dp150
g72
(dp151
g80
I5
ssg81
g145
sg74
(lp152
g67
(g76
g69
NtRp153
(dp154
g72
(dp155
g80
I4
ssg81
Nsg74
(lp156
sbasbasbasbag67
(g83
g69
NtRp157
(dp158
g72
(dp159
sg81
g77
sg74
(lp160
g67
(g88
g69
NtRp161
(dp162
g72
(dp163
g92
g93
ssg81
g157
sg74
(lp164
S'body'
p165
asbag67
(g88
g69
NtRp166
(dp167
g72
(dp168
g99
g100
ssg81
g157
sg74
(lp169
S':'
asbag67
(g88
g69
NtRp170
(dp171
g72
(dp172
sg81
g157
sg74
(lp173
g67
(g68
g69
NtRp174
(dp175
g72
(dp176
g80
I5
ssg81
g170
sg74
(lp177
S'<cStringIO.StringO object at 0x11b514df8>'
p178
asbasbasbag67
(g83
g69
NtRp179
(dp180
g72
(dp181
sg81
g77
sg74
(lp182
g67
(g88
g69
NtRp183
(dp184
g72
(dp185
g92
g93
ssg81
g179
sg74
(lp186
S'client'
p187
asbag67
(g88
g69
NtRp188
(dp189
g72
(dp190
g99
g100
ssg81
g179
sg74
(lp191
S':'
asbag67
(g88
g69
NtRp192
(dp193
g72
(dp194
sg81
g179
sg74
(lp195
g67
(g68
g69
NtRp196
(dp197
g72
(dp198
g80
I5
ssg81
g192
sg74
(lp199
S'127.0.0.1'
p200
asbasbasbag67
(g83
g69
NtRp201
(dp202
g72
(dp203
sg81
g77
sg74
(lp204
g67
(g88
g69
NtRp205
(dp206
g72
(dp207
g92
g93
ssg81
g201
sg74
(lp208
S'controller'
p209
asbag67
(g88
g69
NtRp210
(dp211
g72
(dp212
g99
g100
ssg81
g201
sg74
(lp213
S':'
asbag67
(g88
g69
NtRp214
(dp215
g72
(dp216
sg81
g201
sg74
(lp217
g67
(g68
g69
NtRp218
(dp219
g72
(dp220
g80
I5
ssg81
g214
sg74
(lp221
S'account'
p222
asbasbasbag67
(g83
g69
NtRp223
(dp224
g72
(dp225
sg81
g77
sg74
(lp226
g67
(g88
g69
NtRp227
(dp228
g72
(dp229
g92
g93
ssg81
g223
sg74
(lp230
S'cookies'
p231
asbag67
(g88
g69
NtRp232
(dp233
g72
(dp234
g99
g100
ssg81
g223
sg74
(lp235
S':'
asbag67
(g88
g69
NtRp236
(dp237
g72
(dp238
sg81
g223
sg74
(lp239
g67
(g68
g69
NtRp240
(dp241
g72
(dp242
g80
I5
ssg81
g236
sg74
(lp243
g67
(g76
g69
NtRp244
(dp245
g72
(dp246
g80
I4
ssg81
Nsg74
(lp247
g67
(g83
g69
NtRp248
(dp249
g72
(dp250
sg81
g244
sg74
(lp251
g67
(g88
g69
NtRp252
(dp253
g72
(dp254
g92
g93
ssg81
g248
sg74
(lp255
S'session_id_admin'
p256
asbag67
(g88
g69
NtRp257
(dp258
g72
(dp259
g99
g100
ssg81
g248
sg74
(lp260
S':'
asbag67
(g88
g69
NtRp261
(dp262
g72
(dp263
sg81
g248
sg74
(lp264
g67
(g68
g69
NtRp265
(dp266
g72
(dp267
g80
I4
ssg81
g261
sg74
(lp268
g67
(g76
g69
NtRp269
(dp270
g72
(dp271
g80
I3
ssg81
Nsg74
(lp272
g67
(g83
g69
NtRp273
(dp274
g72
(dp275
sg81
g269
sg74
(lp276
g67
(g88
g69
NtRp277
(dp278
g72
(dp279
g92
g93
ssg81
g273
sg74
(lp280
S'comment'
p281
asbag67
(g88
g69
NtRp282
(dp283
g72
(dp284
g99
g100
ssg81
g273
sg74
(lp285
S':'
asbag67
(g88
g69
NtRp286
(dp287
g72
(dp288
sg81
g273
sg74
(lp289
g67
(g68
g69
NtRp290
(dp291
g72
(dp292
g80
I3
ssg81
g286
sg74
(lp293
S''
asbasbasbag67
(g83
g69
NtRp294
(dp295
g72
(dp296
sg81
g269
sg74
(lp297
g67
(g88
g69
NtRp298
(dp299
g72
(dp300
g92
g93
ssg81
g294
sg74
(lp301
S'domain'
p302
asbag67
(g88
g69
NtRp303
(dp304
g72
(dp305
g99
g100
ssg81
g294
sg74
(lp306
S':'
asbag67
(g88
g69
NtRp307
(dp308
g72
(dp309
sg81
g294
sg74
(lp310
g67
(g68
g69
NtRp311
(dp312
g72
(dp313
g80
I3
ssg81
g307
sg74
(lp314
S''
asbasbasbag67
(g83
g69
NtRp315
(dp316
g72
(dp317
sg81
g269
sg74
(lp318
g67
(g88
g69
NtRp319
(dp320
g72
(dp321
g92
g93
ssg81
g315
sg74
(lp322
S'expires'
p323
asbag67
(g88
g69
NtRp324
(dp325
g72
(dp326
g99
g100
ssg81
g315
sg74
(lp327
S':'
asbag67
(g88
g69
NtRp328
(dp329
g72
(dp330
sg81
g315
sg74
(lp331
g67
(g68
g69
NtRp332
(dp333
g72
(dp334
g80
I3
ssg81
g328
sg74
(lp335
S''
asbasbasbag67
(g83
g69
NtRp336
(dp337
g72
(dp338
sg81
g269
sg74
(lp339
g67
(g88
g69
NtRp340
(dp341
g72
(dp342
g92
g93
ssg81
g336
sg74
(lp343
S'httponly'
p344
asbag67
(g88
g69
NtRp345
(dp346
g72
(dp347
g99
g100
ssg81
g336
sg74
(lp348
S':'
asbag67
(g88
g69
NtRp349
(dp350
g72
(dp351
sg81
g336
sg74
(lp352
g67
(g68
g69
NtRp353
(dp354
g72
(dp355
g80
I3
ssg81
g349
sg74
(lp356
S''
asbasbasbag67
(g83
g69
NtRp357
(dp358
g72
(dp359
sg81
g269
sg74
(lp360
g67
(g88
g69
NtRp361
(dp362
g72
(dp363
g92
g93
ssg81
g357
sg74
(lp364
S'max-age'
p365
asbag67
(g88
g69
NtRp366
(dp367
g72
(dp368
g99
g100
ssg81
g357
sg74
(lp369
S':'
asbag67
(g88
g69
NtRp370
(dp371
g72
(dp372
sg81
g357
sg74
(lp373
g67
(g68
g69
NtRp374
(dp375
g72
(dp376
g80
I3
ssg81
g370
sg74
(lp377
S''
asbasbasbag67
(g83
g69
NtRp378
(dp379
g72
(dp380
sg81
g269
sg74
(lp381
g67
(g88
g69
NtRp382
(dp383
g72
(dp384
g92
g93
ssg81
g378
sg74
(lp385
S'path'
p386
asbag67
(g88
g69
NtRp387
(dp388
g72
(dp389
g99
g100
ssg81
g378
sg74
(lp390
S':'
asbag67
(g88
g69
NtRp391
(dp392
g72
(dp393
sg81
g378
sg74
(lp394
g67
(g68
g69
NtRp395
(dp396
g72
(dp397
g80
I3
ssg81
g391
sg74
(lp398
S''
asbasbasbag67
(g83
g69
NtRp399
(dp400
g72
(dp401
sg81
g269
sg74
(lp402
g67
(g88
g69
NtRp403
(dp404
g72
(dp405
g92
g93
ssg81
g399
sg74
(lp406
S'secure'
p407
asbag67
(g88
g69
NtRp408
(dp409
g72
(dp410
g99
g100
ssg81
g399
sg74
(lp411
S':'
asbag67
(g88
g69
NtRp412
(dp413
g72
(dp414
sg81
g399
sg74
(lp415
g67
(g68
g69
NtRp416
(dp417
g72
(dp418
g80
I3
ssg81
g412
sg74
(lp419
S''
asbasbasbag67
(g83
g69
NtRp420
(dp421
g72
(dp422
sg81
g269
sg74
(lp423
g67
(g88
g69
NtRp424
(dp425
g72
(dp426
g92
g93
ssg81
g420
sg74
(lp427
S'version'
p428
asbag67
(g88
g69
NtRp429
(dp430
g72
(dp431
g99
g100
ssg81
g420
sg74
(lp432
S':'
asbag67
(g88
g69
NtRp433
(dp434
g72
(dp435
sg81
g420
sg74
(lp436
g67
(g68
g69
NtRp437
(dp438
g72
(dp439
g80
I3
ssg81
g433
sg74
(lp440
S''
asbasbasbasbasbasbasbag67
(g83
g69
NtRp441
(dp442
g72
(dp443
sg81
g244
sg74
(lp444
g67
(g88
g69
NtRp445
(dp446
g72
(dp447
g92
g93
ssg81
g441
sg74
(lp448
S'session_id_funback'
p449
asbag67
(g88
g69
NtRp450
(dp451
g72
(dp452
g99
g100
ssg81
g441
sg74
(lp453
S':'
asbag67
(g88
g69
NtRp454
(dp455
g72
(dp456
sg81
g441
sg74
(lp457
g67
(g68
g69
NtRp458
(dp459
g72
(dp460
g80
I4
ssg81
g454
sg74
(lp461
g67
(g76
g69
NtRp462
(dp463
g72
(dp464
g80
I3
ssg81
Nsg74
(lp465
g67
(g83
g69
NtRp466
(dp467
g72
(dp468
sg81
g462
sg74
(lp469
g67
(g88
g69
NtRp470
(dp471
g72
(dp472
g92
g93
ssg81
g466
sg74
(lp473
g281
asbag67
(g88
g69
NtRp474
(dp475
g72
(dp476
g99
g100
ssg81
g466
sg74
(lp477
S':'
asbag67
(g88
g69
NtRp478
(dp479
g72
(dp480
sg81
g466
sg74
(lp481
g67
(g68
g69
NtRp482
(dp483
g72
(dp484
g80
I3
ssg81
g478
sg74
(lp485
S''
asbasbasbag67
(g83
g69
NtRp486
(dp487
g72
(dp488
sg81
g462
sg74
(lp489
g67
(g88
g69
NtRp490
(dp491
g72
(dp492
g92
g93
ssg81
g486
sg74
(lp493
g302
asbag67
(g88
g69
NtRp494
(dp495
g72
(dp496
g99
g100
ssg81
g486
sg74
(lp497
S':'
asbag67
(g88
g69
NtRp498
(dp499
g72
(dp500
sg81
g486
sg74
(lp501
g67
(g68
g69
NtRp502
(dp503
g72
(dp504
g80
I3
ssg81
g498
sg74
(lp505
S''
asbasbasbag67
(g83
g69
NtRp506
(dp507
g72
(dp508
sg81
g462
sg74
(lp509
g67
(g88
g69
NtRp510
(dp511
g72
(dp512
g92
g93
ssg81
g506
sg74
(lp513
g323
asbag67
(g88
g69
NtRp514
(dp515
g72
(dp516
g99
g100
ssg81
g506
sg74
(lp517
S':'
asbag67
(g88
g69
NtRp518
(dp519
g72
(dp520
sg81
g506
sg74
(lp521
g67
(g68
g69
NtRp522
(dp523
g72
(dp524
g80
I3
ssg81
g518
sg74
(lp525
S''
asbasbasbag67
(g83
g69
NtRp526
(dp527
g72
(dp528
sg81
g462
sg74
(lp529
g67
(g88
g69
NtRp530
(dp531
g72
(dp532
g92
g93
ssg81
g526
sg74
(lp533
g344
asbag67
(g88
g69
NtRp534
(dp535
g72
(dp536
g99
g100
ssg81
g526
sg74
(lp537
S':'
asbag67
(g88
g69
NtRp538
(dp539
g72
(dp540
sg81
g526
sg74
(lp541
g67
(g68
g69
NtRp542
(dp543
g72
(dp544
g80
I3
ssg81
g538
sg74
(lp545
S''
asbasbasbag67
(g83
g69
NtRp546
(dp547
g72
(dp548
sg81
g462
sg74
(lp549
g67
(g88
g69
NtRp550
(dp551
g72
(dp552
g92
g93
ssg81
g546
sg74
(lp553
g365
asbag67
(g88
g69
NtRp554
(dp555
g72
(dp556
g99
g100
ssg81
g546
sg74
(lp557
S':'
asbag67
(g88
g69
NtRp558
(dp559
g72
(dp560
sg81
g546
sg74
(lp561
g67
(g68
g69
NtRp562
(dp563
g72
(dp564
g80
I3
ssg81
g558
sg74
(lp565
S''
asbasbasbag67
(g83
g69
NtRp566
(dp567
g72
(dp568
sg81
g462
sg74
(lp569
g67
(g88
g69
NtRp570
(dp571
g72
(dp572
g92
g93
ssg81
g566
sg74
(lp573
g386
asbag67
(g88
g69
NtRp574
(dp575
g72
(dp576
g99
g100
ssg81
g566
sg74
(lp577
S':'
asbag67
(g88
g69
NtRp578
(dp579
g72
(dp580
sg81
g566
sg74
(lp581
g67
(g68
g69
NtRp582
(dp583
g72
(dp584
g80
I3
ssg81
g578
sg74
(lp585
S''
asbasbasbag67
(g83
g69
NtRp586
(dp587
g72
(dp588
sg81
g462
sg74
(lp589
g67
(g88
g69
NtRp590
(dp591
g72
(dp592
g92
g93
ssg81
g586
sg74
(lp593
g407
asbag67
(g88
g69
NtRp594
(dp595
g72
(dp596
g99
g100
ssg81
g586
sg74
(lp597
S':'
asbag67
(g88
g69
NtRp598
(dp599
g72
(dp600
sg81
g586
sg74
(lp601
g67
(g68
g69
NtRp602
(dp603
g72
(dp604
g80
I3
ssg81
g598
sg74
(lp605
S''
asbasbasbag67
(g83
g69
NtRp606
(dp607
g72
(dp608
sg81
g462
sg74
(lp609
g67
(g88
g69
NtRp610
(dp611
g72
(dp612
g92
g93
ssg81
g606
sg74
(lp613
g428
asbag67
(g88
g69
NtRp614
(dp615
g72
(dp616
g99
g100
ssg81
g606
sg74
(lp617
S':'
asbag67
(g88
g69
NtRp618
(dp619
g72
(dp620
sg81
g606
sg74
(lp621
g67
(g68
g69
NtRp622
(dp623
g72
(dp624
g80
I3
ssg81
g618
sg74
(lp625
S''
asbasbasbasbasbasbasbag67
(g83
g69
NtRp626
(dp627
g72
(dp628
sg81
g244
sg74
(lp629
g67
(g88
g69
NtRp630
(dp631
g72
(dp632
g92
g93
ssg81
g626
sg74
(lp633
S'session_id_welcome'
p634
asbag67
(g88
g69
NtRp635
(dp636
g72
(dp637
g99
g100
ssg81
g626
sg74
(lp638
S':'
asbag67
(g88
g69
NtRp639
(dp640
g72
(dp641
sg81
g626
sg74
(lp642
g67
(g68
g69
NtRp643
(dp644
g72
(dp645
g80
I4
ssg81
g639
sg74
(lp646
g67
(g76
g69
NtRp647
(dp648
g72
(dp649
g80
I3
ssg81
Nsg74
(lp650
g67
(g83
g69
NtRp651
(dp652
g72
(dp653
sg81
g647
sg74
(lp654
g67
(g88
g69
NtRp655
(dp656
g72
(dp657
g92
g93
ssg81
g651
sg74
(lp658
g281
asbag67
(g88
g69
NtRp659
(dp660
g72
(dp661
g99
g100
ssg81
g651
sg74
(lp662
S':'
asbag67
(g88
g69
NtRp663
(dp664
g72
(dp665
sg81
g651
sg74
(lp666
g67
(g68
g69
NtRp667
(dp668
g72
(dp669
g80
I3
ssg81
g663
sg74
(lp670
S''
asbasbasbag67
(g83
g69
NtRp671
(dp672
g72
(dp673
sg81
g647
sg74
(lp674
g67
(g88
g69
NtRp675
(dp676
g72
(dp677
g92
g93
ssg81
g671
sg74
(lp678
g302
asbag67
(g88
g69
NtRp679
(dp680
g72
(dp681
g99
g100
ssg81
g671
sg74
(lp682
S':'
asbag67
(g88
g69
NtRp683
(dp684
g72
(dp685
sg81
g671
sg74
(lp686
g67
(g68
g69
NtRp687
(dp688
g72
(dp689
g80
I3
ssg81
g683
sg74
(lp690
S''
asbasbasbag67
(g83
g69
NtRp691
(dp692
g72
(dp693
sg81
g647
sg74
(lp694
g67
(g88
g69
NtRp695
(dp696
g72
(dp697
g92
g93
ssg81
g691
sg74
(lp698
g323
asbag67
(g88
g69
NtRp699
(dp700
g72
(dp701
g99
g100
ssg81
g691
sg74
(lp702
S':'
asbag67
(g88
g69
NtRp703
(dp704
g72
(dp705
sg81
g691
sg74
(lp706
g67
(g68
g69
NtRp707
(dp708
g72
(dp709
g80
I3
ssg81
g703
sg74
(lp710
S''
asbasbasbag67
(g83
g69
NtRp711
(dp712
g72
(dp713
sg81
g647
sg74
(lp714
g67
(g88
g69
NtRp715
(dp716
g72
(dp717
g92
g93
ssg81
g711
sg74
(lp718
g344
asbag67
(g88
g69
NtRp719
(dp720
g72
(dp721
g99
g100
ssg81
g711
sg74
(lp722
S':'
asbag67
(g88
g69
NtRp723
(dp724
g72
(dp725
sg81
g711
sg74
(lp726
g67
(g68
g69
NtRp727
(dp728
g72
(dp729
g80
I3
ssg81
g723
sg74
(lp730
S''
asbasbasbag67
(g83
g69
NtRp731
(dp732
g72
(dp733
sg81
g647
sg74
(lp734
g67
(g88
g69
NtRp735
(dp736
g72
(dp737
g92
g93
ssg81
g731
sg74
(lp738
g365
asbag67
(g88
g69
NtRp739
(dp740
g72
(dp741
g99
g100
ssg81
g731
sg74
(lp742
S':'
asbag67
(g88
g69
NtRp743
(dp744
g72
(dp745
sg81
g731
sg74
(lp746
g67
(g68
g69
NtRp747
(dp748
g72
(dp749
g80
I3
ssg81
g743
sg74
(lp750
S''
asbasbasbag67
(g83
g69
NtRp751
(dp752
g72
(dp753
sg81
g647
sg74
(lp754
g67
(g88
g69
NtRp755
(dp756
g72
(dp757
g92
g93
ssg81
g751
sg74
(lp758
g386
asbag67
(g88
g69
NtRp759
(dp760
g72
(dp761
g99
g100
ssg81
g751
sg74
(lp762
S':'
asbag67
(g88
g69
NtRp763
(dp764
g72
(dp765
sg81
g751
sg74
(lp766
g67
(g68
g69
NtRp767
(dp768
g72
(dp769
g80
I3
ssg81
g763
sg74
(lp770
S''
asbasbasbag67
(g83
g69
NtRp771
(dp772
g72
(dp773
sg81
g647
sg74
(lp774
g67
(g88
g69
NtRp775
(dp776
g72
(dp777
g92
g93
ssg81
g771
sg74
(lp778
g407
asbag67
(g88
g69
NtRp779
(dp780
g72
(dp781
g99
g100
ssg81
g771
sg74
(lp782
S':'
asbag67
(g88
g69
NtRp783
(dp784
g72
(dp785
sg81
g771
sg74
(lp786
g67
(g68
g69
NtRp787
(dp788
g72
(dp789
g80
I3
ssg81
g783
sg74
(lp790
S''
asbasbasbag67
(g83
g69
NtRp791
(dp792
g72
(dp793
sg81
g647
sg74
(lp794
g67
(g88
g69
NtRp795
(dp796
g72
(dp797
g92
g93
ssg81
g791
sg74
(lp798
g428
asbag67
(g88
g69
NtRp799
(dp800
g72
(dp801
g99
g100
ssg81
g791
sg74
(lp802
S':'
asbag67
(g88
g69
NtRp803
(dp804
g72
(dp805
sg81
g791
sg74
(lp806
g67
(g68
g69
NtRp807
(dp808
g72
(dp809
g80
I3
ssg81
g803
sg74
(lp810
S''
asbasbasbasbasbasbasbasbasbasbasbag67
(g83
g69
NtRp811
(dp812
g72
(dp813
sg81
g77
sg74
(lp814
g67
(g88
g69
NtRp815
(dp816
g72
(dp817
g92
g93
ssg81
g811
sg74
(lp818
S'env'
p819
asbag67
(g88
g69
NtRp820
(dp821
g72
(dp822
g99
g100
ssg81
g811
sg74
(lp823
S':'
asbag67
(g88
g69
NtRp824
(dp825
g72
(dp826
sg81
g811
sg74
(lp827
g67
(g68
g69
NtRp828
(dp829
g72
(dp830
g80
I5
ssg81
g824
sg74
(lp831
g67
(g76
g69
NtRp832
(dp833
g72
(dp834
g80
I4
ssg81
Nsg74
(lp835
g67
(g83
g69
NtRp836
(dp837
g72
(dp838
sg81
g832
sg74
(lp839
g67
(g88
g69
NtRp840
(dp841
g72
(dp842
g92
g93
ssg81
g836
sg74
(lp843
S'app_folders'
p844
asbag67
(g88
g69
NtRp845
(dp846
g72
(dp847
g99
g100
ssg81
g836
sg74
(lp848
S':'
asbag67
(g88
g69
NtRp849
(dp850
g72
(dp851
sg81
g836
sg74
(lp852
g67
(g68
g69
NtRp853
(dp854
g72
(dp855
g80
I4
ssg81
g849
sg74
(lp856
S"set(['/Users/cyan/Package/GitHub/funback/web2py/applications/welcome/', '/Users/cyan/Package/GitHub/funback/web2py/applications/funback/'])"
p857
asbasbasbag67
(g83
g69
NtRp858
(dp859
g72
(dp860
sg81
g832
sg74
(lp861
g67
(g88
g69
NtRp862
(dp863
g72
(dp864
g92
g93
ssg81
g858
sg74
(lp865
S'applications_parent'
p866
asbag67
(g88
g69
NtRp867
(dp868
g72
(dp869
g99
g100
ssg81
g858
sg74
(lp870
S':'
asbag67
(g88
g69
NtRp871
(dp872
g72
(dp873
sg81
g858
sg74
(lp874
g67
(g68
g69
NtRp875
(dp876
g72
(dp877
g80
I4
ssg81
g871
sg74
(lp878
S'/Users/cyan/Package/GitHub/funback/web2py'
p879
asbasbasbag67
(g83
g69
NtRp880
(dp881
g72
(dp882
sg81
g832
sg74
(lp883
g67
(g88
g69
NtRp884
(dp885
g72
(dp886
g92
g93
ssg81
g880
sg74
(lp887
S'cmd_args'
p888
asbag67
(g88
g69
NtRp889
(dp890
g72
(dp891
g99
g100
ssg81
g880
sg74
(lp892
S':'
asbag67
(g88
g69
NtRp893
(dp894
g72
(dp895
sg81
g880
sg74
(lp896
g67
(g68
g69
NtRp897
(dp898
g72
(dp899
g80
I4
ssg81
g893
sg74
(lp900
g67
(g76
g69
NtRp901
(dp902
g72
(dp903
g80
I3
ssg81
Nsg74
(lp904
sbasbasbasbag67
(g83
g69
NtRp905
(dp906
g72
(dp907
sg81
g832
sg74
(lp908
g67
(g88
g69
NtRp909
(dp910
g72
(dp911
g92
g93
ssg81
g905
sg74
(lp912
S'cmd_options'
p913
asbag67
(g88
g69
NtRp914
(dp915
g72
(dp916
g99
g100
ssg81
g905
sg74
(lp917
S':'
asbag67
(g88
g69
NtRp918
(dp919
g72
(dp920
sg81
g905
sg74
(lp921
g67
(g68
g69
NtRp922
(dp923
g72
(dp924
g80
I4
ssg81
g918
sg74
(lp925
S"<Values at 0x1012d4b00: {'verbose': False, 'ip': '127.0.0.1', 'shutdown_timeout': 5, 'taskbar': False, 'nocron': False, 'pid_filename': 'httpserver.pid', 'maxthreads': None, 'softcron': False, 'server_name': 'cyan-1.local', 'bpython': False, 'nogui': False, 'port': 8000, 'extcron': False, 'debuglevel': 30, 'test': None, 'folder': '/Users/cyan/Package/GitHub/funback/web2py', 'config': '', 'import_models': False, 'winservice': '', 'shell': None, 'run': '', 'log_filename': 'httpserver.log', 'args': [''], 'socket_timeout': 5, 'ssl_ca_certificate': None, 'scheduler': None, 'profiler_filename': None, 'ssl_private_key': '', 'password': '<ask>', 'request_queue_size': 5, 'ssl_certificate': '', 'cronjob': False, 'numthreads': None, 'quiet': False, 'interfaces': None, 'minthreads': None, 'timeout': 10, 'plain': False, 'nobanner': False}>"
p926
asbasbasbag67
(g83
g69
NtRp927
(dp928
g72
(dp929
sg81
g832
sg74
(lp930
g67
(g88
g69
NtRp931
(dp932
g72
(dp933
g92
g93
ssg81
g927
sg74
(lp934
S'db_sessions'
p935
asbag67
(g88
g69
NtRp936
(dp937
g72
(dp938
g99
g100
ssg81
g927
sg74
(lp939
S':'
asbag67
(g88
g69
NtRp940
(dp941
g72
(dp942
sg81
g927
sg74
(lp943
g67
(g68
g69
NtRp944
(dp945
g72
(dp946
g80
I4
ssg81
g940
sg74
(lp947
S'set([])'
p948
asbasbasbag67
(g83
g69
NtRp949
(dp950
g72
(dp951
sg81
g832
sg74
(lp952
g67
(g88
g69
NtRp953
(dp954
g72
(dp955
g92
g93
ssg81
g949
sg74
(lp956
S'debugging'
p957
asbag67
(g88
g69
NtRp958
(dp959
g72
(dp960
g99
g100
ssg81
g949
sg74
(lp961
S':'
asbag67
(g88
g69
NtRp962
(dp963
g72
(dp964
sg81
g949
sg74
(lp965
g67
(g68
g69
NtRp966
(dp967
g72
(dp968
g80
I4
ssg81
g962
sg74
(lp969
g110
asbasbasbag67
(g83
g69
NtRp970
(dp971
g72
(dp972
sg81
g832
sg74
(lp973
g67
(g88
g69
NtRp974
(dp975
g72
(dp976
g92
g93
ssg81
g970
sg74
(lp977
S'gluon_parent'
p978
asbag67
(g88
g69
NtRp979
(dp980
g72
(dp981
g99
g100
ssg81
g970
sg74
(lp982
S':'
asbag67
(g88
g69
NtRp983
(dp984
g72
(dp985
sg81
g970
sg74
(lp986
g67
(g68
g69
NtRp987
(dp988
g72
(dp989
g80
I4
ssg81
g983
sg74
(lp990
S'/Users/cyan/Package/GitHub/funback/web2py'
p991
asbasbasbag67
(g83
g69
NtRp992
(dp993
g72
(dp994
sg81
g832
sg74
(lp995
g67
(g88
g69
NtRp996
(dp997
g72
(dp998
g92
g93
ssg81
g992
sg74
(lp999
S'http_accept'
p1000
asbag67
(g88
g69
NtRp1001
(dp1002
g72
(dp1003
g99
g100
ssg81
g992
sg74
(lp1004
S':'
asbag67
(g88
g69
NtRp1005
(dp1006
g72
(dp1007
sg81
g992
sg74
(lp1008
g67
(g68
g69
NtRp1009
(dp1010
g72
(dp1011
g80
I4
ssg81
g1005
sg74
(lp1012
S'text/html,application/xhtml+xml,application/xml;q=0.9,*/*;q=0.8'
p1013
asbasbasbag67
(g83
g69
NtRp1014
(dp1015
g72
(dp1016
sg81
g832
sg74
(lp1017
g67
(g88
g69
NtRp1018
(dp1019
g72
(dp1020
g92
g93
ssg81
g1014
sg74
(lp1021
S'http_accept_charset'
p1022
asbag67
(g88
g69
NtRp1023
(dp1024
g72
(dp1025
g99
g100
ssg81
g1014
sg74
(lp1026
S':'
asbag67
(g88
g69
NtRp1027
(dp1028
g72
(dp1029
sg81
g1014
sg74
(lp1030
g67
(g68
g69
NtRp1031
(dp1032
g72
(dp1033
g80
I4
ssg81
g1027
sg74
(lp1034
S'ISO-8859-1,utf-8;q=0.7,*;q=0.3'
p1035
asbasbasbag67
(g83
g69
NtRp1036
(dp1037
g72
(dp1038
sg81
g832
sg74
(lp1039
g67
(g88
g69
NtRp1040
(dp1041
g72
(dp1042
g92
g93
ssg81
g1036
sg74
(lp1043
S'http_accept_encoding'
p1044
asbag67
(g88
g69
NtRp1045
(dp1046
g72
(dp1047
g99
g100
ssg81
g1036
sg74
(lp1048
S':'
asbag67
(g88
g69
NtRp1049
(dp1050
g72
(dp1051
sg81
g1036
sg74
(lp1052
g67
(g68
g69
NtRp1053
(dp1054
g72
(dp1055
g80
I4
ssg81
g1049
sg74
(lp1056
S'gzip,deflate,sdch'
p1057
asbasbasbag67
(g83
g69
NtRp1058
(dp1059
g72
(dp1060
sg81
g832
sg74
(lp1061
g67
(g88
g69
NtRp1062
(dp1063
g72
(dp1064
g92
g93
ssg81
g1058
sg74
(lp1065
S'http_accept_language'
p1066
asbag67
(g88
g69
NtRp1067
(dp1068
g72
(dp1069
g99
g100
ssg81
g1058
sg74
(lp1070
S':'
asbag67
(g88
g69
NtRp1071
(dp1072
g72
(dp1073
sg81
g1058
sg74
(lp1074
g67
(g68
g69
NtRp1075
(dp1076
g72
(dp1077
g80
I4
ssg81
g1071
sg74
(lp1078
S'en-US,en;q=0.8'
p1079
asbasbasbag67
(g83
g69
NtRp1080
(dp1081
g72
(dp1082
sg81
g832
sg74
(lp1083
g67
(g88
g69
NtRp1084
(dp1085
g72
(dp1086
g92
g93
ssg81
g1080
sg74
(lp1087
S'http_connection'
p1088
asbag67
(g88
g69
NtRp1089
(dp1090
g72
(dp1091
g99
g100
ssg81
g1080
sg74
(lp1092
S':'
asbag67
(g88
g69
NtRp1093
(dp1094
g72
(dp1095
sg81
g1080
sg74
(lp1096
g67
(g68
g69
NtRp1097
(dp1098
g72
(dp1099
g80
I4
ssg81
g1093
sg74
(lp1100
S'keep-alive'
p1101
asbasbasbag67
(g83
g69
NtRp1102
(dp1103
g72
(dp1104
sg81
g832
sg74
(lp1105
g67
(g88
g69
NtRp1106
(dp1107
g72
(dp1108
g92
g93
ssg81
g1102
sg74
(lp1109
S'http_cookie'
p1110
asbag67
(g88
g69
NtRp1111
(dp1112
g72
(dp1113
g99
g100
ssg81
g1102
sg74
(lp1114
S':'
asbag67
(g88
g69
NtRp1115
(dp1116
g72
(dp1117
sg81
g1102
sg74
(lp1118
g67
(g68
g69
NtRp1119
(dp1120
g72
(dp1121
g80
I4
ssg81
g1115
sg74
(lp1122
S'session_id_admin=127.0.0.1-95effe64-071a-43cd-9bc5-518f0c39e323; session_id_funback=127.0.0.1-e25f12f5-78b1-4973-96b7-3e18a5eced54; session_id_welcome=127.0.0.1-adc461ee-370c-466e-8cf4-5c2d934c34cb'
p1123
asbasbasbag67
(g83
g69
NtRp1124
(dp1125
g72
(dp1126
sg81
g832
sg74
(lp1127
g67
(g88
g69
NtRp1128
(dp1129
g72
(dp1130
g92
g93
ssg81
g1124
sg74
(lp1131
S'http_host'
p1132
asbag67
(g88
g69
NtRp1133
(dp1134
g72
(dp1135
g99
g100
ssg81
g1124
sg74
(lp1136
S':'
asbag67
(g88
g69
NtRp1137
(dp1138
g72
(dp1139
sg81
g1124
sg74
(lp1140
g67
(g68
g69
NtRp1141
(dp1142
g72
(dp1143
g80
I4
ssg81
g1137
sg74
(lp1144
S'127.0.0.1:8000'
p1145
asbasbasbag67
(g83
g69
NtRp1146
(dp1147
g72
(dp1148
sg81
g832
sg74
(lp1149
g67
(g88
g69
NtRp1150
(dp1151
g72
(dp1152
g92
g93
ssg81
g1146
sg74
(lp1153
S'http_user_agent'
p1154
asbag67
(g88
g69
NtRp1155
(dp1156
g72
(dp1157
g99
g100
ssg81
g1146
sg74
(lp1158
S':'
asbag67
(g88
g69
NtRp1159
(dp1160
g72
(dp1161
sg81
g1146
sg74
(lp1162
g67
(g68
g69
NtRp1163
(dp1164
g72
(dp1165
g80
I4
ssg81
g1159
sg74
(lp1166
S'Mozilla/5.0 (Macintosh; Intel Mac OS X 10_6_8) AppleWebKit/535.19 (KHTML, like Gecko) Chrome/18.0.1025.151 Safari/535.19'
p1167
asbasbasbag67
(g83
g69
NtRp1168
(dp1169
g72
(dp1170
sg81
g832
sg74
(lp1171
g67
(g88
g69
NtRp1172
(dp1173
g72
(dp1174
g92
g93
ssg81
g1168
sg74
(lp1175
S'is_jython'
p1176
asbag67
(g88
g69
NtRp1177
(dp1178
g72
(dp1179
g99
g100
ssg81
g1168
sg74
(lp1180
S':'
asbag67
(g88
g69
NtRp1181
(dp1182
g72
(dp1183
sg81
g1168
sg74
(lp1184
g67
(g68
g69
NtRp1185
(dp1186
g72
(dp1187
g80
I4
ssg81
g1181
sg74
(lp1188
g110
asbasbasbag67
(g83
g69
NtRp1189
(dp1190
g72
(dp1191
sg81
g832
sg74
(lp1192
g67
(g88
g69
NtRp1193
(dp1194
g72
(dp1195
g92
g93
ssg81
g1189
sg74
(lp1196
S'is_pypy'
p1197
asbag67
(g88
g69
NtRp1198
(dp1199
g72
(dp1200
g99
g100
ssg81
g1189
sg74
(lp1201
S':'
asbag67
(g88
g69
NtRp1202
(dp1203
g72
(dp1204
sg81
g1189
sg74
(lp1205
g67
(g68
g69
NtRp1206
(dp1207
g72
(dp1208
g80
I4
ssg81
g1202
sg74
(lp1209
g110
asbasbasbag67
(g83
g69
NtRp1210
(dp1211
g72
(dp1212
sg81
g832
sg74
(lp1213
g67
(g88
g69
NtRp1214
(dp1215
g72
(dp1216
g92
g93
ssg81
g1210
sg74
(lp1217
S'path_info'
p1218
asbag67
(g88
g69
NtRp1219
(dp1220
g72
(dp1221
g99
g100
ssg81
g1210
sg74
(lp1222
S':'
asbag67
(g88
g69
NtRp1223
(dp1224
g72
(dp1225
sg81
g1210
sg74
(lp1226
g67
(g68
g69
NtRp1227
(dp1228
g72
(dp1229
g80
I4
ssg81
g1223
sg74
(lp1230
S'/funback/account/register'
p1231
asbasbasbag67
(g83
g69
NtRp1232
(dp1233
g72
(dp1234
sg81
g832
sg74
(lp1235
g67
(g88
g69
NtRp1236
(dp1237
g72
(dp1238
g92
g93
ssg81
g1232
sg74
(lp1239
S'query_string'
p1240
asbag67
(g88
g69
NtRp1241
(dp1242
g72
(dp1243
g99
g100
ssg81
g1232
sg74
(lp1244
S':'
asbag67
(g88
g69
NtRp1245
(dp1246
g72
(dp1247
sg81
g1232
sg74
(lp1248
g67
(g68
g69
NtRp1249
(dp1250
g72
(dp1251
g80
I4
ssg81
g1245
sg74
(lp1252
S''
asbasbasbag67
(g83
g69
NtRp1253
(dp1254
g72
(dp1255
sg81
g832
sg74
(lp1256
g67
(g88
g69
NtRp1257
(dp1258
g72
(dp1259
g92
g93
ssg81
g1253
sg74
(lp1260
S'remote_addr'
p1261
asbag67
(g88
g69
NtRp1262
(dp1263
g72
(dp1264
g99
g100
ssg81
g1253
sg74
(lp1265
S':'
asbag67
(g88
g69
NtRp1266
(dp1267
g72
(dp1268
sg81
g1253
sg74
(lp1269
g67
(g68
g69
NtRp1270
(dp1271
g72
(dp1272
g80
I4
ssg81
g1266
sg74
(lp1273
g200
asbasbasbag67
(g83
g69
NtRp1274
(dp1275
g72
(dp1276
sg81
g832
sg74
(lp1277
g67
(g88
g69
NtRp1278
(dp1279
g72
(dp1280
g92
g93
ssg81
g1274
sg74
(lp1281
S'remote_port'
p1282
asbag67
(g88
g69
NtRp1283
(dp1284
g72
(dp1285
g99
g100
ssg81
g1274
sg74
(lp1286
S':'
asbag67
(g88
g69
NtRp1287
(dp1288
g72
(dp1289
sg81
g1274
sg74
(lp1290
g67
(g68
g69
NtRp1291
(dp1292
g72
(dp1293
g80
I4
ssg81
g1287
sg74
(lp1294
S'63756'
p1295
asbasbasbag67
(g83
g69
NtRp1296
(dp1297
g72
(dp1298
sg81
g832
sg74
(lp1299
g67
(g88
g69
NtRp1300
(dp1301
g72
(dp1302
g92
g93
ssg81
g1296
sg74
(lp1303
S'request_method'
p1304
asbag67
(g88
g69
NtRp1305
(dp1306
g72
(dp1307
g99
g100
ssg81
g1296
sg74
(lp1308
S':'
asbag67
(g88
g69
NtRp1309
(dp1310
g72
(dp1311
sg81
g1296
sg74
(lp1312
g67
(g68
g69
NtRp1313
(dp1314
g72
(dp1315
g80
I4
ssg81
g1309
sg74
(lp1316
S'GET'
p1317
asbasbasbag67
(g83
g69
NtRp1318
(dp1319
g72
(dp1320
sg81
g832
sg74
(lp1321
g67
(g88
g69
NtRp1322
(dp1323
g72
(dp1324
g92
g93
ssg81
g1318
sg74
(lp1325
S'script_name'
p1326
asbag67
(g88
g69
NtRp1327
(dp1328
g72
(dp1329
g99
g100
ssg81
g1318
sg74
(lp1330
S':'
asbag67
(g88
g69
NtRp1331
(dp1332
g72
(dp1333
sg81
g1318
sg74
(lp1334
g67
(g68
g69
NtRp1335
(dp1336
g72
(dp1337
g80
I4
ssg81
g1331
sg74
(lp1338
S''
asbasbasbag67
(g83
g69
NtRp1339
(dp1340
g72
(dp1341
sg81
g832
sg74
(lp1342
g67
(g88
g69
NtRp1343
(dp1344
g72
(dp1345
g92
g93
ssg81
g1339
sg74
(lp1346
S'server_name'
p1347
asbag67
(g88
g69
NtRp1348
(dp1349
g72
(dp1350
g99
g100
ssg81
g1339
sg74
(lp1351
S':'
asbag67
(g88
g69
NtRp1352
(dp1353
g72
(dp1354
sg81
g1339
sg74
(lp1355
g67
(g68
g69
NtRp1356
(dp1357
g72
(dp1358
g80
I4
ssg81
g1352
sg74
(lp1359
S'cyan-1.local'
p1360
asbasbasbag67
(g83
g69
NtRp1361
(dp1362
g72
(dp1363
sg81
g832
sg74
(lp1364
g67
(g88
g69
NtRp1365
(dp1366
g72
(dp1367
g92
g93
ssg81
g1361
sg74
(lp1368
S'server_port'
p1369
asbag67
(g88
g69
NtRp1370
(dp1371
g72
(dp1372
g99
g100
ssg81
g1361
sg74
(lp1373
S':'
asbag67
(g88
g69
NtRp1374
(dp1375
g72
(dp1376
sg81
g1361
sg74
(lp1377
g67
(g68
g69
NtRp1378
(dp1379
g72
(dp1380
g80
I4
ssg81
g1374
sg74
(lp1381
S'8000'
p1382
asbasbasbag67
(g83
g69
NtRp1383
(dp1384
g72
(dp1385
sg81
g832
sg74
(lp1386
g67
(g88
g69
NtRp1387
(dp1388
g72
(dp1389
g92
g93
ssg81
g1383
sg74
(lp1390
S'server_protocol'
p1391
asbag67
(g88
g69
NtRp1392
(dp1393
g72
(dp1394
g99
g100
ssg81
g1383
sg74
(lp1395
S':'
asbag67
(g88
g69
NtRp1396
(dp1397
g72
(dp1398
sg81
g1383
sg74
(lp1399
g67
(g68
g69
NtRp1400
(dp1401
g72
(dp1402
g80
I4
ssg81
g1396
sg74
(lp1403
S'HTTP/1.1'
p1404
asbasbasbag67
(g83
g69
NtRp1405
(dp1406
g72
(dp1407
sg81
g832
sg74
(lp1408
g67
(g88
g69
NtRp1409
(dp1410
g72
(dp1411
g92
g93
ssg81
g1405
sg74
(lp1412
S'server_software'
p1413
asbag67
(g88
g69
NtRp1414
(dp1415
g72
(dp1416
g99
g100
ssg81
g1405
sg74
(lp1417
S':'
asbag67
(g88
g69
NtRp1418
(dp1419
g72
(dp1420
sg81
g1405
sg74
(lp1421
g67
(g68
g69
NtRp1422
(dp1423
g72
(dp1424
g80
I4
ssg81
g1418
sg74
(lp1425
S'Rocket 1.2.4'
p1426
asbasbasbag67
(g83
g69
NtRp1427
(dp1428
g72
(dp1429
sg81
g832
sg74
(lp1430
g67
(g88
g69
NtRp1431
(dp1432
g72
(dp1433
g92
g93
ssg81
g1427
sg74
(lp1434
S'web2py_crontype'
p1435
asbag67
(g88
g69
NtRp1436
(dp1437
g72
(dp1438
g99
g100
ssg81
g1427
sg74
(lp1439
S':'
asbag67
(g88
g69
NtRp1440
(dp1441
g72
(dp1442
sg81
g1427
sg74
(lp1443
g67
(g68
g69
NtRp1444
(dp1445
g72
(dp1446
g80
I4
ssg81
g1440
sg74
(lp1447
S'hard'
p1448
asbasbasbag67
(g83
g69
NtRp1449
(dp1450
g72
(dp1451
sg81
g832
sg74
(lp1452
g67
(g88
g69
NtRp1453
(dp1454
g72
(dp1455
g92
g93
ssg81
g1449
sg74
(lp1456
S'web2py_path'
p1457
asbag67
(g88
g69
NtRp1458
(dp1459
g72
(dp1460
g99
g100
ssg81
g1449
sg74
(lp1461
S':'
asbag67
(g88
g69
NtRp1462
(dp1463
g72
(dp1464
sg81
g1449
sg74
(lp1465
g67
(g68
g69
NtRp1466
(dp1467
g72
(dp1468
g80
I4
ssg81
g1462
sg74
(lp1469
g879
asbasbasbag67
(g83
g69
NtRp1470
(dp1471
g72
(dp1472
sg81
g832
sg74
(lp1473
g67
(g88
g69
NtRp1474
(dp1475
g72
(dp1476
g92
g93
ssg81
g1470
sg74
(lp1477
S'web2py_version'
p1478
asbag67
(g88
g69
NtRp1479
(dp1480
g72
(dp1481
g99
g100
ssg81
g1470
sg74
(lp1482
S':'
asbag67
(g88
g69
NtRp1483
(dp1484
g72
(dp1485
sg81
g1470
sg74
(lp1486
g67
(g68
g69
NtRp1487
(dp1488
g72
(dp1489
g80
I4
ssg81
g1483
sg74
(lp1490
g67
(g76
g69
NtRp1491
(dp1492
g72
(dp1493
g80
I3
ssg81
Nsg74
(lp1494
g67
(g83
g69
NtRp1495
(dp1496
g72
(dp1497
sg81
g1491
sg74
(lp1498
g67
(g88
g69
NtRp1499
(dp1500
g72
(dp1501
sg81
g1495
sg74
(lp1502
g67
(g68
g69
NtRp1503
(dp1504
g72
(dp1505
g80
I3
ssg81
g1499
sg74
(lp1506
S'1'
asbasbasbag67
(g83
g69
NtRp1507
(dp1508
g72
(dp1509
sg81
g1491
sg74
(lp1510
g67
(g88
g69
NtRp1511
(dp1512
g72
(dp1513
sg81
g1507
sg74
(lp1514
g67
(g68
g69
NtRp1515
(dp1516
g72
(dp1517
g80
I3
ssg81
g1511
sg74
(lp1518
S'99'
p1519
asbasbasbag67
(g83
g69
NtRp1520
(dp1521
g72
(dp1522
sg81
g1491
sg74
(lp1523
g67
(g88
g69
NtRp1524
(dp1525
g72
(dp1526
sg81
g1520
sg74
(lp1527
g67
(g68
g69
NtRp1528
(dp1529
g72
(dp1530
g80
I3
ssg81
g1524
sg74
(lp1531
S'7'
asbasbasbag67
(g83
g69
NtRp1532
(dp1533
g72
(dp1534
sg81
g1491
sg74
(lp1535
g67
(g88
g69
NtRp1536
(dp1537
g72
(dp1538
sg81
g1532
sg74
(lp1539
g67
(g68
g69
NtRp1540
(dp1541
g72
(dp1542
g80
I3
ssg81
g1536
sg74
(lp1543
S'datetime.datetime(2012, 3, 4, 22, 12, 8)'
p1544
asbasbasbag67
(g83
g69
NtRp1545
(dp1546
g72
(dp1547
sg81
g1491
sg74
(lp1548
g67
(g88
g69
NtRp1549
(dp1550
g72
(dp1551
sg81
g1545
sg74
(lp1552
g67
(g68
g69
NtRp1553
(dp1554
g72
(dp1555
g80
I3
ssg81
g1549
sg74
(lp1556
S'stable'
p1557
asbasbasbasbasbasbasbag67
(g83
g69
NtRp1558
(dp1559
g72
(dp1560
sg81
g832
sg74
(lp1561
g67
(g88
g69
NtRp1562
(dp1563
g72
(dp1564
g92
g93
ssg81
g1558
sg74
(lp1565
S'wsgi_errors'
p1566
asbag67
(g88
g69
NtRp1567
(dp1568
g72
(dp1569
g99
g100
ssg81
g1558
sg74
(lp1570
S':'
asbag67
(g88
g69
NtRp1571
(dp1572
g72
(dp1573
sg81
g1558
sg74
(lp1574
g67
(g68
g69
NtRp1575
(dp1576
g72
(dp1577
g80
I4
ssg81
g1571
sg74
(lp1578
S"<open file '<stderr>', mode 'w' at 0x100283270>"
p1579
asbasbasbag67
(g83
g69
NtRp1580
(dp1581
g72
(dp1582
sg81
g832
sg74
(lp1583
g67
(g88
g69
NtRp1584
(dp1585
g72
(dp1586
g92
g93
ssg81
g1580
sg74
(lp1587
S'wsgi_file_wrapper'
p1588
asbag67
(g88
g69
NtRp1589
(dp1590
g72
(dp1591
g99
g100
ssg81
g1580
sg74
(lp1592
S':'
asbag67
(g88
g69
NtRp1593
(dp1594
g72
(dp1595
sg81
g1580
sg74
(lp1596
g67
(g68
g69
NtRp1597
(dp1598
g72
(dp1599
g80
I4
ssg81
g1593
sg74
(lp1600
S'<class wsgiref.util.FileWrapper at 0x1016a5b48>'
p1601
asbasbasbag67
(g83
g69
NtRp1602
(dp1603
g72
(dp1604
sg81
g832
sg74
(lp1605
g67
(g88
g69
NtRp1606
(dp1607
g72
(dp1608
g92
g93
ssg81
g1602
sg74
(lp1609
S'wsgi_input'
p1610
asbag67
(g88
g69
NtRp1611
(dp1612
g72
(dp1613
g99
g100
ssg81
g1602
sg74
(lp1614
S':'
asbag67
(g88
g69
NtRp1615
(dp1616
g72
(dp1617
sg81
g1602
sg74
(lp1618
g67
(g68
g69
NtRp1619
(dp1620
g72
(dp1621
g80
I4
ssg81
g1615
sg74
(lp1622
S'<socket._fileobject object at 0x11b51b3d0>'
p1623
asbasbasbag67
(g83
g69
NtRp1624
(dp1625
g72
(dp1626
sg81
g832
sg74
(lp1627
g67
(g88
g69
NtRp1628
(dp1629
g72
(dp1630
g92
g93
ssg81
g1624
sg74
(lp1631
S'wsgi_multiprocess'
p1632
asbag67
(g88
g69
NtRp1633
(dp1634
g72
(dp1635
g99
g100
ssg81
g1624
sg74
(lp1636
S':'
asbag67
(g88
g69
NtRp1637
(dp1638
g72
(dp1639
sg81
g1624
sg74
(lp1640
g67
(g68
g69
NtRp1641
(dp1642
g72
(dp1643
g80
I4
ssg81
g1637
sg74
(lp1644
g110
asbasbasbag67
(g83
g69
NtRp1645
(dp1646
g72
(dp1647
sg81
g832
sg74
(lp1648
g67
(g88
g69
NtRp1649
(dp1650
g72
(dp1651
g92
g93
ssg81
g1645
sg74
(lp1652
S'wsgi_multithread'
p1653
asbag67
(g88
g69
NtRp1654
(dp1655
g72
(dp1656
g99
g100
ssg81
g1645
sg74
(lp1657
S':'
asbag67
(g88
g69
NtRp1658
(dp1659
g72
(dp1660
sg81
g1645
sg74
(lp1661
g67
(g68
g69
NtRp1662
(dp1663
g72
(dp1664
g80
I4
ssg81
g1658
sg74
(lp1665
S'True'
p1666
asbasbasbag67
(g83
g69
NtRp1667
(dp1668
g72
(dp1669
sg81
g832
sg74
(lp1670
g67
(g88
g69
NtRp1671
(dp1672
g72
(dp1673
g92
g93
ssg81
g1667
sg74
(lp1674
S'wsgi_run_once'
p1675
asbag67
(g88
g69
NtRp1676
(dp1677
g72
(dp1678
g99
g100
ssg81
g1667
sg74
(lp1679
S':'
asbag67
(g88
g69
NtRp1680
(dp1681
g72
(dp1682
sg81
g1667
sg74
(lp1683
g67
(g68
g69
NtRp1684
(dp1685
g72
(dp1686
g80
I4
ssg81
g1680
sg74
(lp1687
g110
asbasbasbag67
(g83
g69
NtRp1688
(dp1689
g72
(dp1690
sg81
g832
sg74
(lp1691
g67
(g88
g69
NtRp1692
(dp1693
g72
(dp1694
g92
g93
ssg81
g1688
sg74
(lp1695
S'wsgi_url_scheme'
p1696
asbag67
(g88
g69
NtRp1697
(dp1698
g72
(dp1699
g99
g100
ssg81
g1688
sg74
(lp1700
S':'
asbag67
(g88
g69
NtRp1701
(dp1702
g72
(dp1703
sg81
g1688
sg74
(lp1704
g67
(g68
g69
NtRp1705
(dp1706
g72
(dp1707
g80
I4
ssg81
g1701
sg74
(lp1708
S'http'
p1709
asbasbasbag67
(g83
g69
NtRp1710
(dp1711
g72
(dp1712
sg81
g832
sg74
(lp1713
g67
(g88
g69
NtRp1714
(dp1715
g72
(dp1716
g92
g93
ssg81
g1710
sg74
(lp1717
S'wsgi_version'
p1718
asbag67
(g88
g69
NtRp1719
(dp1720
g72
(dp1721
g99
g100
ssg81
g1710
sg74
(lp1722
S':'
asbag67
(g88
g69
NtRp1723
(dp1724
g72
(dp1725
sg81
g1710
sg74
(lp1726
g67
(g68
g69
NtRp1727
(dp1728
g72
(dp1729
g80
I4
ssg81
g1723
sg74
(lp1730
g67
(g76
g69
NtRp1731
(dp1732
g72
(dp1733
g80
I3
ssg81
Nsg74
(lp1734
g67
(g83
g69
NtRp1735
(dp1736
g72
(dp1737
sg81
g1731
sg74
(lp1738
g67
(g88
g69
NtRp1739
(dp1740
g72
(dp1741
sg81
g1735
sg74
(lp1742
g67
(g68
g69
NtRp1743
(dp1744
g72
(dp1745
g80
I3
ssg81
g1739
sg74
(lp1746
S'1'
asbasbasbag67
(g83
g69
NtRp1747
(dp1748
g72
(dp1749
sg81
g1731
sg74
(lp1750
g67
(g88
g69
NtRp1751
(dp1752
g72
(dp1753
sg81
g1747
sg74
(lp1754
g67
(g68
g69
NtRp1755
(dp1756
g72
(dp1757
g80
I3
ssg81
g1751
sg74
(lp1758
S'0'
asbasbasbasbasbasbasbasbasbasbasbag67
(g83
g69
NtRp1759
(dp1760
g72
(dp1761
sg81
g77
sg74
(lp1762
g67
(g88
g69
NtRp1763
(dp1764
g72
(dp1765
g92
g93
ssg81
g1759
sg74
(lp1766
S'extension'
p1767
asbag67
(g88
g69
NtRp1768
(dp1769
g72
(dp1770
g99
g100
ssg81
g1759
sg74
(lp1771
S':'
asbag67
(g88
g69
NtRp1772
(dp1773
g72
(dp1774
sg81
g1759
sg74
(lp1775
g67
(g68
g69
NtRp1776
(dp1777
g72
(dp1778
g80
I5
ssg81
g1772
sg74
(lp1779
S'html'
p1780
asbasbasbag67
(g83
g69
NtRp1781
(dp1782
g72
(dp1783
sg81
g77
sg74
(lp1784
g67
(g88
g69
NtRp1785
(dp1786
g72
(dp1787
g92
g93
ssg81
g1781
sg74
(lp1788
S'folder'
p1789
asbag67
(g88
g69
NtRp1790
(dp1791
g72
(dp1792
g99
g100
ssg81
g1781
sg74
(lp1793
S':'
asbag67
(g88
g69
NtRp1794
(dp1795
g72
(dp1796
sg81
g1781
sg74
(lp1797
g67
(g68
g69
NtRp1798
(dp1799
g72
(dp1800
g80
I5
ssg81
g1794
sg74
(lp1801
S'/Users/cyan/Package/GitHub/funback/web2py/applications/funback/'
p1802
asbasbasbag67
(g83
g69
NtRp1803
(dp1804
g72
(dp1805
sg81
g77
sg74
(lp1806
g67
(g88
g69
NtRp1807
(dp1808
g72
(dp1809
g92
g93
ssg81
g1803
sg74
(lp1810
S'function'
p1811
asbag67
(g88
g69
NtRp1812
(dp1813
g72
(dp1814
g99
g100
ssg81
g1803
sg74
(lp1815
S':'
asbag67
(g88
g69
NtRp1816
(dp1817
g72
(dp1818
sg81
g1803
sg74
(lp1819
g67
(g68
g69
NtRp1820
(dp1821
g72
(dp1822
g80
I5
ssg81
g1816
sg74
(lp1823
S'register'
p1824
asbasbasbag67
(g83
g69
NtRp1825
(dp1826
g72
(dp1827
sg81
g77
sg74
(lp1828
g67
(g88
g69
NtRp1829
(dp1830
g72
(dp1831
g92
g93
ssg81
g1825
sg74
(lp1832
S'get_vars'
p1833
asbag67
(g88
g69
NtRp1834
(dp1835
g72
(dp1836
g99
g100
ssg81
g1825
sg74
(lp1837
S':'
asbag67
(g88
g69
NtRp1838
(dp1839
g72
(dp1840
sg81
g1825
sg74
(lp1841
g67
(g68
g69
NtRp1842
(dp1843
g72
(dp1844
g80
I5
ssg81
g1838
sg74
(lp1845
g67
(g76
g69
NtRp1846
(dp1847
g72
(dp1848
g80
I4
ssg81
Nsg74
(lp1849
sbasbasbasbag67
(g83
g69
NtRp1850
(dp1851
g72
(dp1852
sg81
g77
sg74
(lp1853
g67
(g88
g69
NtRp1854
(dp1855
g72
(dp1856
g92
g93
ssg81
g1850
sg74
(lp1857
S'global_settings'
p1858
asbag67
(g88
g69
NtRp1859
(dp1860
g72
(dp1861
g99
g100
ssg81
g1850
sg74
(lp1862
S':'
asbag67
(g88
g69
NtRp1863
(dp1864
g72
(dp1865
sg81
g1850
sg74
(lp1866
g67
(g68
g69
NtRp1867
(dp1868
g72
(dp1869
g80
I5
ssg81
g1863
sg74
(lp1870
g67
(g76
g69
NtRp1871
(dp1872
g72
(dp1873
g80
I4
ssg81
Nsg74
(lp1874
g67
(g83
g69
NtRp1875
(dp1876
g72
(dp1877
sg81
g1871
sg74
(lp1878
g67
(g88
g69
NtRp1879
(dp1880
g72
(dp1881
g92
g93
ssg81
g1875
sg74
(lp1882
g844
asbag67
(g88
g69
NtRp1883
(dp1884
g72
(dp1885
g99
g100
ssg81
g1875
sg74
(lp1886
S':'
asbag67
(g88
g69
NtRp1887
(dp1888
g72
(dp1889
sg81
g1875
sg74
(lp1890
g67
(g68
g69
NtRp1891
(dp1892
g72
(dp1893
g80
I4
ssg81
g1887
sg74
(lp1894
S"set(['/Users/cyan/Package/GitHub/funback/web2py/applications/welcome/', '/Users/cyan/Package/GitHub/funback/web2py/applications/funback/'])"
p1895
asbasbasbag67
(g83
g69
NtRp1896
(dp1897
g72
(dp1898
sg81
g1871
sg74
(lp1899
g67
(g88
g69
NtRp1900
(dp1901
g72
(dp1902
g92
g93
ssg81
g1896
sg74
(lp1903
g866
asbag67
(g88
g69
NtRp1904
(dp1905
g72
(dp1906
g99
g100
ssg81
g1896
sg74
(lp1907
S':'
asbag67
(g88
g69
NtRp1908
(dp1909
g72
(dp1910
sg81
g1896
sg74
(lp1911
g67
(g68
g69
NtRp1912
(dp1913
g72
(dp1914
g80
I4
ssg81
g1908
sg74
(lp1915
g879
asbasbasbag67
(g83
g69
NtRp1916
(dp1917
g72
(dp1918
sg81
g1871
sg74
(lp1919
g67
(g88
g69
NtRp1920
(dp1921
g72
(dp1922
g92
g93
ssg81
g1916
sg74
(lp1923
g888
asbag67
(g88
g69
NtRp1924
(dp1925
g72
(dp1926
g99
g100
ssg81
g1916
sg74
(lp1927
S':'
asbag67
(g88
g69
NtRp1928
(dp1929
g72
(dp1930
sg81
g1916
sg74
(lp1931
g67
(g68
g69
NtRp1932
(dp1933
g72
(dp1934
g80
I4
ssg81
g1928
sg74
(lp1935
g67
(g76
g69
NtRp1936
(dp1937
g72
(dp1938
g80
I3
ssg81
Nsg74
(lp1939
sbasbasbasbag67
(g83
g69
NtRp1940
(dp1941
g72
(dp1942
sg81
g1871
sg74
(lp1943
g67
(g88
g69
NtRp1944
(dp1945
g72
(dp1946
g92
g93
ssg81
g1940
sg74
(lp1947
g913
asbag67
(g88
g69
NtRp1948
(dp1949
g72
(dp1950
g99
g100
ssg81
g1940
sg74
(lp1951
S':'
asbag67
(g88
g69
NtRp1952
(dp1953
g72
(dp1954
sg81
g1940
sg74
(lp1955
g67
(g68
g69
NtRp1956
(dp1957
g72
(dp1958
g80
I4
ssg81
g1952
sg74
(lp1959
S"<Values at 0x1012d4b00: {'verbose': False, 'ip': '127.0.0.1', 'shutdown_timeout': 5, 'taskbar': False, 'nocron': False, 'pid_filename': 'httpserver.pid', 'maxthreads': None, 'softcron': False, 'server_name': 'cyan-1.local', 'bpython': False, 'nogui': False, 'port': 8000, 'extcron': False, 'debuglevel': 30, 'test': None, 'folder': '/Users/cyan/Package/GitHub/funback/web2py', 'config': '', 'import_models': False, 'winservice': '', 'shell': None, 'run': '', 'log_filename': 'httpserver.log', 'args': [''], 'socket_timeout': 5, 'ssl_ca_certificate': None, 'scheduler': None, 'profiler_filename': None, 'ssl_private_key': '', 'password': '<ask>', 'request_queue_size': 5, 'ssl_certificate': '', 'cronjob': False, 'numthreads': None, 'quiet': False, 'interfaces': None, 'minthreads': None, 'timeout': 10, 'plain': False, 'nobanner': False}>"
p1960
asbasbasbag67
(g83
g69
NtRp1961
(dp1962
g72
(dp1963
sg81
g1871
sg74
(lp1964
g67
(g88
g69
NtRp1965
(dp1966
g72
(dp1967
g92
g93
ssg81
g1961
sg74
(lp1968
g935
asbag67
(g88
g69
NtRp1969
(dp1970
g72
(dp1971
g99
g100
ssg81
g1961
sg74
(lp1972
S':'
asbag67
(g88
g69
NtRp1973
(dp1974
g72
(dp1975
sg81
g1961
sg74
(lp1976
g67
(g68
g69
NtRp1977
(dp1978
g72
(dp1979
g80
I4
ssg81
g1973
sg74
(lp1980
S'set([])'
p1981
asbasbasbag67
(g83
g69
NtRp1982
(dp1983
g72
(dp1984
sg81
g1871
sg74
(lp1985
g67
(g88
g69
NtRp1986
(dp1987
g72
(dp1988
g92
g93
ssg81
g1982
sg74
(lp1989
g957
asbag67
(g88
g69
NtRp1990
(dp1991
g72
(dp1992
g99
g100
ssg81
g1982
sg74
(lp1993
S':'
asbag67
(g88
g69
NtRp1994
(dp1995
g72
(dp1996
sg81
g1982
sg74
(lp1997
g67
(g68
g69
NtRp1998
(dp1999
g72
(dp2000
g80
I4
ssg81
g1994
sg74
(lp2001
g110
asbasbasbag67
(g83
g69
NtRp2002
(dp2003
g72
(dp2004
sg81
g1871
sg74
(lp2005
g67
(g88
g69
NtRp2006
(dp2007
g72
(dp2008
g92
g93
ssg81
g2002
sg74
(lp2009
g978
asbag67
(g88
g69
NtRp2010
(dp2011
g72
(dp2012
g99
g100
ssg81
g2002
sg74
(lp2013
S':'
asbag67
(g88
g69
NtRp2014
(dp2015
g72
(dp2016
sg81
g2002
sg74
(lp2017
g67
(g68
g69
NtRp2018
(dp2019
g72
(dp2020
g80
I4
ssg81
g2014
sg74
(lp2021
g991
asbasbasbag67
(g83
g69
NtRp2022
(dp2023
g72
(dp2024
sg81
g1871
sg74
(lp2025
g67
(g88
g69
NtRp2026
(dp2027
g72
(dp2028
g92
g93
ssg81
g2022
sg74
(lp2029
g1176
asbag67
(g88
g69
NtRp2030
(dp2031
g72
(dp2032
g99
g100
ssg81
g2022
sg74
(lp2033
S':'
asbag67
(g88
g69
NtRp2034
(dp2035
g72
(dp2036
sg81
g2022
sg74
(lp2037
g67
(g68
g69
NtRp2038
(dp2039
g72
(dp2040
g80
I4
ssg81
g2034
sg74
(lp2041
g110
asbasbasbag67
(g83
g69
NtRp2042
(dp2043
g72
(dp2044
sg81
g1871
sg74
(lp2045
g67
(g88
g69
NtRp2046
(dp2047
g72
(dp2048
g92
g93
ssg81
g2042
sg74
(lp2049
g1197
asbag67
(g88
g69
NtRp2050
(dp2051
g72
(dp2052
g99
g100
ssg81
g2042
sg74
(lp2053
S':'
asbag67
(g88
g69
NtRp2054
(dp2055
g72
(dp2056
sg81
g2042
sg74
(lp2057
g67
(g68
g69
NtRp2058
(dp2059
g72
(dp2060
g80
I4
ssg81
g2054
sg74
(lp2061
g110
asbasbasbag67
(g83
g69
NtRp2062
(dp2063
g72
(dp2064
sg81
g1871
sg74
(lp2065
g67
(g88
g69
NtRp2066
(dp2067
g72
(dp2068
g92
g93
ssg81
g2062
sg74
(lp2069
g1435
asbag67
(g88
g69
NtRp2070
(dp2071
g72
(dp2072
g99
g100
ssg81
g2062
sg74
(lp2073
S':'
asbag67
(g88
g69
NtRp2074
(dp2075
g72
(dp2076
sg81
g2062
sg74
(lp2077
g67
(g68
g69
NtRp2078
(dp2079
g72
(dp2080
g80
I4
ssg81
g2074
sg74
(lp2081
g1448
asbasbasbag67
(g83
g69
NtRp2082
(dp2083
g72
(dp2084
sg81
g1871
sg74
(lp2085
g67
(g88
g69
NtRp2086
(dp2087
g72
(dp2088
g92
g93
ssg81
g2082
sg74
(lp2089
g1478
asbag67
(g88
g69
NtRp2090
(dp2091
g72
(dp2092
g99
g100
ssg81
g2082
sg74
(lp2093
S':'
asbag67
(g88
g69
NtRp2094
(dp2095
g72
(dp2096
sg81
g2082
sg74
(lp2097
g67
(g68
g69
NtRp2098
(dp2099
g72
(dp2100
g80
I4
ssg81
g2094
sg74
(lp2101
g67
(g76
g69
NtRp2102
(dp2103
g72
(dp2104
g80
I3
ssg81
Nsg74
(lp2105
g67
(g83
g69
NtRp2106
(dp2107
g72
(dp2108
sg81
g2102
sg74
(lp2109
g67
(g88
g69
NtRp2110
(dp2111
g72
(dp2112
sg81
g2106
sg74
(lp2113
g67
(g68
g69
NtRp2114
(dp2115
g72
(dp2116
g80
I3
ssg81
g2110
sg74
(lp2117
S'1'
asbasbasbag67
(g83
g69
NtRp2118
(dp2119
g72
(dp2120
sg81
g2102
sg74
(lp2121
g67
(g88
g69
NtRp2122
(dp2123
g72
(dp2124
sg81
g2118
sg74
(lp2125
g67
(g68
g69
NtRp2126
(dp2127
g72
(dp2128
g80
I3
ssg81
g2122
sg74
(lp2129
S'99'
p2130
asbasbasbag67
(g83
g69
NtRp2131
(dp2132
g72
(dp2133
sg81
g2102
sg74
(lp2134
g67
(g88
g69
NtRp2135
(dp2136
g72
(dp2137
sg81
g2131
sg74
(lp2138
g67
(g68
g69
NtRp2139
(dp2140
g72
(dp2141
g80
I3
ssg81
g2135
sg74
(lp2142
S'7'
asbasbasbag67
(g83
g69
NtRp2143
(dp2144
g72
(dp2145
sg81
g2102
sg74
(lp2146
g67
(g88
g69
NtRp2147
(dp2148
g72
(dp2149
sg81
g2143
sg74
(lp2150
g67
(g68
g69
NtRp2151
(dp2152
g72
(dp2153
g80
I3
ssg81
g2147
sg74
(lp2154
S'datetime.datetime(2012, 3, 4, 22, 12, 8)'
p2155
asbasbasbag67
(g83
g69
NtRp2156
(dp2157
g72
(dp2158
sg81
g2102
sg74
(lp2159
g67
(g88
g69
NtRp2160
(dp2161
g72
(dp2162
sg81
g2156
sg74
(lp2163
g67
(g68
g69
NtRp2164
(dp2165
g72
(dp2166
g80
I3
ssg81
g2160
sg74
(lp2167
g1557
asbasbasbasbasbasbasbasbasbasbasbag67
(g83
g69
NtRp2168
(dp2169
g72
(dp2170
sg81
g77
sg74
(lp2171
g67
(g88
g69
NtRp2172
(dp2173
g72
(dp2174
g92
g93
ssg81
g2168
sg74
(lp2175
S'is_https'
p2176
asbag67
(g88
g69
NtRp2177
(dp2178
g72
(dp2179
g99
g100
ssg81
g2168
sg74
(lp2180
S':'
asbag67
(g88
g69
NtRp2181
(dp2182
g72
(dp2183
sg81
g2168
sg74
(lp2184
g67
(g68
g69
NtRp2185
(dp2186
g72
(dp2187
g80
I5
ssg81
g2181
sg74
(lp2188
g110
asbasbasbag67
(g83
g69
NtRp2189
(dp2190
g72
(dp2191
sg81
g77
sg74
(lp2192
g67
(g88
g69
NtRp2193
(dp2194
g72
(dp2195
g92
g93
ssg81
g2189
sg74
(lp2196
S'is_local'
p2197
asbag67
(g88
g69
NtRp2198
(dp2199
g72
(dp2200
g99
g100
ssg81
g2189
sg74
(lp2201
S':'
asbag67
(g88
g69
NtRp2202
(dp2203
g72
(dp2204
sg81
g2189
sg74
(lp2205
g67
(g68
g69
NtRp2206
(dp2207
g72
(dp2208
g80
I5
ssg81
g2202
sg74
(lp2209
g1666
asbasbasbag67
(g83
g69
NtRp2210
(dp2211
g72
(dp2212
sg81
g77
sg74
(lp2213
g67
(g88
g69
NtRp2214
(dp2215
g72
(dp2216
g92
g93
ssg81
g2210
sg74
(lp2217
S'is_restful'
p2218
asbag67
(g88
g69
NtRp2219
(dp2220
g72
(dp2221
g99
g100
ssg81
g2210
sg74
(lp2222
S':'
asbag67
(g88
g69
NtRp2223
(dp2224
g72
(dp2225
sg81
g2210
sg74
(lp2226
g67
(g68
g69
NtRp2227
(dp2228
g72
(dp2229
g80
I5
ssg81
g2223
sg74
(lp2230
g110
asbasbasbag67
(g83
g69
NtRp2231
(dp2232
g72
(dp2233
sg81
g77
sg74
(lp2234
g67
(g88
g69
NtRp2235
(dp2236
g72
(dp2237
g92
g93
ssg81
g2231
sg74
(lp2238
S'now'
p2239
asbag67
(g88
g69
NtRp2240
(dp2241
g72
(dp2242
g99
g100
ssg81
g2231
sg74
(lp2243
S':'
asbag67
(g88
g69
NtRp2244
(dp2245
g72
(dp2246
sg81
g2231
sg74
(lp2247
g67
(g68
g69
NtRp2248
(dp2249
g72
(dp2250
g80
I5
ssg81
g2244
sg74
(lp2251
S'datetime.datetime(2012, 4, 19, 13, 4, 55, 787468)'
p2252
asbasbasbag67
(g83
g69
NtRp2253
(dp2254
g72
(dp2255
sg81
g77
sg74
(lp2256
g67
(g88
g69
NtRp2257
(dp2258
g72
(dp2259
g92
g93
ssg81
g2253
sg74
(lp2260
S'post_vars'
p2261
asbag67
(g88
g69
NtRp2262
(dp2263
g72
(dp2264
g99
g100
ssg81
g2253
sg74
(lp2265
S':'
asbag67
(g88
g69
NtRp2266
(dp2267
g72
(dp2268
sg81
g2253
sg74
(lp2269
g67
(g68
g69
NtRp2270
(dp2271
g72
(dp2272
g80
I5
ssg81
g2266
sg74
(lp2273
g67
(g76
g69
NtRp2274
(dp2275
g72
(dp2276
g80
I4
ssg81
Nsg74
(lp2277
sbasbasbasbag67
(g83
g69
NtRp2278
(dp2279
g72
(dp2280
sg81
g77
sg74
(lp2281
g67
(g88
g69
NtRp2282
(dp2283
g72
(dp2284
g92
g93
ssg81
g2278
sg74
(lp2285
S'url'
p2286
asbag67
(g88
g69
NtRp2287
(dp2288
g72
(dp2289
g99
g100
ssg81
g2278
sg74
(lp2290
S':'
asbag67
(g88
g69
NtRp2291
(dp2292
g72
(dp2293
sg81
g2278
sg74
(lp2294
g67
(g68
g69
NtRp2295
(dp2296
g72
(dp2297
g80
I5
ssg81
g2291
sg74
(lp2298
S'/funback/account/register'
p2299
asbasbasbag67
(g83
g69
NtRp2300
(dp2301
g72
(dp2302
sg81
g77
sg74
(lp2303
g67
(g88
g69
NtRp2304
(dp2305
g72
(dp2306
g92
g93
ssg81
g2300
sg74
(lp2307
S'utcnow'
p2308
asbag67
(g88
g69
NtRp2309
(dp2310
g72
(dp2311
g99
g100
ssg81
g2300
sg74
(lp2312
S':'
asbag67
(g88
g69
NtRp2313
(dp2314
g72
(dp2315
sg81
g2300
sg74
(lp2316
g67
(g68
g69
NtRp2317
(dp2318
g72
(dp2319
g80
I5
ssg81
g2313
sg74
(lp2320
S'datetime.datetime(2012, 4, 19, 17, 4, 55, 787480)'
p2321
asbasbasbag67
(g83
g69
NtRp2322
(dp2323
g72
(dp2324
sg81
g77
sg74
(lp2325
g67
(g88
g69
NtRp2326
(dp2327
g72
(dp2328
g92
g93
ssg81
g2322
sg74
(lp2329
S'uuid'
p2330
asbag67
(g88
g69
NtRp2331
(dp2332
g72
(dp2333
g99
g100
ssg81
g2322
sg74
(lp2334
S':'
asbag67
(g88
g69
NtRp2335
(dp2336
g72
(dp2337
sg81
g2322
sg74
(lp2338
g67
(g68
g69
NtRp2339
(dp2340
g72
(dp2341
g80
I5
ssg81
g2335
sg74
(lp2342
S'funback/127.0.0.1.2012-04-19.13-04-55.51624315-7062-44a0-8ae4-625eeda6f3bb'
p2343
asbasbasbag67
(g83
g69
NtRp2344
(dp2345
g72
(dp2346
sg81
g77
sg74
(lp2347
g67
(g88
g69
NtRp2348
(dp2349
g72
(dp2350
g92
g93
ssg81
g2344
sg74
(lp2351
S'vars'
p2352
asbag67
(g88
g69
NtRp2353
(dp2354
g72
(dp2355
g99
g100
ssg81
g2344
sg74
(lp2356
S':'
asbag67
(g88
g69
NtRp2357
(dp2358
g72
(dp2359
sg81
g2344
sg74
(lp2360
g67
(g68
g69
NtRp2361
(dp2362
g72
(dp2363
g80
I5
ssg81
g2357
sg74
(lp2364
g67
(g76
g69
NtRp2365
(dp2366
g72
(dp2367
g80
I4
ssg81
Nsg74
(lp2368
sbasbasbasbag67
(g83
g69
NtRp2369
(dp2370
g72
(dp2371
sg81
g77
sg74
(lp2372
g67
(g88
g69
NtRp2373
(dp2374
g72
(dp2375
g92
g93
ssg81
g2369
sg74
(lp2376
S'wsgi'
p2377
asbag67
(g88
g69
NtRp2378
(dp2379
g72
(dp2380
g99
g100
ssg81
g2369
sg74
(lp2381
S':'
asbag67
(g88
g69
NtRp2382
(dp2383
g72
(dp2384
sg81
g2369
sg74
(lp2385
g67
(g68
g69
NtRp2386
(dp2387
g72
(dp2388
g80
I5
ssg81
g2382
sg74
(lp2389
g67
(g76
g69
NtRp2390
(dp2391
g72
(dp2392
g80
I4
ssg81
Nsg74
(lp2393
g67
(g83
g69
NtRp2394
(dp2395
g72
(dp2396
sg81
g2390
sg74
(lp2397
g67
(g88
g69
NtRp2398
(dp2399
g72
(dp2400
g92
g93
ssg81
g2394
sg74
(lp2401
S'environ'
p2402
asbag67
(g88
g69
NtRp2403
(dp2404
g72
(dp2405
g99
g100
ssg81
g2394
sg74
(lp2406
S':'
asbag67
(g88
g69
NtRp2407
(dp2408
g72
(dp2409
sg81
g2394
sg74
(lp2410
g67
(g68
g69
NtRp2411
(dp2412
g72
(dp2413
g80
I4
ssg81
g2407
sg74
(lp2414
g67
(g76
g69
NtRp2415
(dp2416
g72
(dp2417
g80
I3
ssg81
Nsg74
(lp2418
g67
(g83
g69
NtRp2419
(dp2420
g72
(dp2421
sg81
g2415
sg74
(lp2422
g67
(g88
g69
NtRp2423
(dp2424
g72
(dp2425
g92
g93
ssg81
g2419
sg74
(lp2426
S'HTTP_ACCEPT'
p2427
asbag67
(g88
g69
NtRp2428
(dp2429
g72
(dp2430
g99
g100
ssg81
g2419
sg74
(lp2431
S':'
asbag67
(g88
g69
NtRp2432
(dp2433
g72
(dp2434
sg81
g2419
sg74
(lp2435
g67
(g68
g69
NtRp2436
(dp2437
g72
(dp2438
g80
I3
ssg81
g2432
sg74
(lp2439
g1013
asbasbasbag67
(g83
g69
NtRp2440
(dp2441
g72
(dp2442
sg81
g2415
sg74
(lp2443
g67
(g88
g69
NtRp2444
(dp2445
g72
(dp2446
g92
g93
ssg81
g2440
sg74
(lp2447
S'HTTP_ACCEPT_CHARSET'
p2448
asbag67
(g88
g69
NtRp2449
(dp2450
g72
(dp2451
g99
g100
ssg81
g2440
sg74
(lp2452
S':'
asbag67
(g88
g69
NtRp2453
(dp2454
g72
(dp2455
sg81
g2440
sg74
(lp2456
g67
(g68
g69
NtRp2457
(dp2458
g72
(dp2459
g80
I3
ssg81
g2453
sg74
(lp2460
g1035
asbasbasbag67
(g83
g69
NtRp2461
(dp2462
g72
(dp2463
sg81
g2415
sg74
(lp2464
g67
(g88
g69
NtRp2465
(dp2466
g72
(dp2467
g92
g93
ssg81
g2461
sg74
(lp2468
S'HTTP_ACCEPT_ENCODING'
p2469
asbag67
(g88
g69
NtRp2470
(dp2471
g72
(dp2472
g99
g100
ssg81
g2461
sg74
(lp2473
S':'
asbag67
(g88
g69
NtRp2474
(dp2475
g72
(dp2476
sg81
g2461
sg74
(lp2477
g67
(g68
g69
NtRp2478
(dp2479
g72
(dp2480
g80
I3
ssg81
g2474
sg74
(lp2481
g1057
asbasbasbag67
(g83
g69
NtRp2482
(dp2483
g72
(dp2484
sg81
g2415
sg74
(lp2485
g67
(g88
g69
NtRp2486
(dp2487
g72
(dp2488
g92
g93
ssg81
g2482
sg74
(lp2489
S'HTTP_ACCEPT_LANGUAGE'
p2490
asbag67
(g88
g69
NtRp2491
(dp2492
g72
(dp2493
g99
g100
ssg81
g2482
sg74
(lp2494
S':'
asbag67
(g88
g69
NtRp2495
(dp2496
g72
(dp2497
sg81
g2482
sg74
(lp2498
g67
(g68
g69
NtRp2499
(dp2500
g72
(dp2501
g80
I3
ssg81
g2495
sg74
(lp2502
g1079
asbasbasbag67
(g83
g69
NtRp2503
(dp2504
g72
(dp2505
sg81
g2415
sg74
(lp2506
g67
(g88
g69
NtRp2507
(dp2508
g72
(dp2509
g92
g93
ssg81
g2503
sg74
(lp2510
S'HTTP_CONNECTION'
p2511
asbag67
(g88
g69
NtRp2512
(dp2513
g72
(dp2514
g99
g100
ssg81
g2503
sg74
(lp2515
S':'
asbag67
(g88
g69
NtRp2516
(dp2517
g72
(dp2518
sg81
g2503
sg74
(lp2519
g67
(g68
g69
NtRp2520
(dp2521
g72
(dp2522
g80
I3
ssg81
g2516
sg74
(lp2523
g1101
asbasbasbag67
(g83
g69
NtRp2524
(dp2525
g72
(dp2526
sg81
g2415
sg74
(lp2527
g67
(g88
g69
NtRp2528
(dp2529
g72
(dp2530
g92
g93
ssg81
g2524
sg74
(lp2531
S'HTTP_COOKIE'
p2532
asbag67
(g88
g69
NtRp2533
(dp2534
g72
(dp2535
g99
g100
ssg81
g2524
sg74
(lp2536
S':'
asbag67
(g88
g69
NtRp2537
(dp2538
g72
(dp2539
sg81
g2524
sg74
(lp2540
g67
(g68
g69
NtRp2541
(dp2542
g72
(dp2543
g80
I3
ssg81
g2537
sg74
(lp2544
g1123
asbasbasbag67
(g83
g69
NtRp2545
(dp2546
g72
(dp2547
sg81
g2415
sg74
(lp2548
g67
(g88
g69
NtRp2549
(dp2550
g72
(dp2551
g92
g93
ssg81
g2545
sg74
(lp2552
S'HTTP_HOST'
p2553
asbag67
(g88
g69
NtRp2554
(dp2555
g72
(dp2556
g99
g100
ssg81
g2545
sg74
(lp2557
S':'
asbag67
(g88
g69
NtRp2558
(dp2559
g72
(dp2560
sg81
g2545
sg74
(lp2561
g67
(g68
g69
NtRp2562
(dp2563
g72
(dp2564
g80
I3
ssg81
g2558
sg74
(lp2565
g1145
asbasbasbag67
(g83
g69
NtRp2566
(dp2567
g72
(dp2568
sg81
g2415
sg74
(lp2569
g67
(g88
g69
NtRp2570
(dp2571
g72
(dp2572
g92
g93
ssg81
g2566
sg74
(lp2573
S'HTTP_USER_AGENT'
p2574
asbag67
(g88
g69
NtRp2575
(dp2576
g72
(dp2577
g99
g100
ssg81
g2566
sg74
(lp2578
S':'
asbag67
(g88
g69
NtRp2579
(dp2580
g72
(dp2581
sg81
g2566
sg74
(lp2582
g67
(g68
g69
NtRp2583
(dp2584
g72
(dp2585
g80
I3
ssg81
g2579
sg74
(lp2586
g1167
asbasbasbag67
(g83
g69
NtRp2587
(dp2588
g72
(dp2589
sg81
g2415
sg74
(lp2590
g67
(g88
g69
NtRp2591
(dp2592
g72
(dp2593
g92
g93
ssg81
g2587
sg74
(lp2594
S'PATH_INFO'
p2595
asbag67
(g88
g69
NtRp2596
(dp2597
g72
(dp2598
g99
g100
ssg81
g2587
sg74
(lp2599
S':'
asbag67
(g88
g69
NtRp2600
(dp2601
g72
(dp2602
sg81
g2587
sg74
(lp2603
g67
(g68
g69
NtRp2604
(dp2605
g72
(dp2606
g80
I3
ssg81
g2600
sg74
(lp2607
g1231
asbasbasbag67
(g83
g69
NtRp2608
(dp2609
g72
(dp2610
sg81
g2415
sg74
(lp2611
g67
(g88
g69
NtRp2612
(dp2613
g72
(dp2614
g92
g93
ssg81
g2608
sg74
(lp2615
S'QUERY_STRING'
p2616
asbag67
(g88
g69
NtRp2617
(dp2618
g72
(dp2619
g99
g100
ssg81
g2608
sg74
(lp2620
S':'
asbag67
(g88
g69
NtRp2621
(dp2622
g72
(dp2623
sg81
g2608
sg74
(lp2624
g67
(g68
g69
NtRp2625
(dp2626
g72
(dp2627
g80
I3
ssg81
g2621
sg74
(lp2628
S''
asbasbasbag67
(g83
g69
NtRp2629
(dp2630
g72
(dp2631
sg81
g2415
sg74
(lp2632
g67
(g88
g69
NtRp2633
(dp2634
g72
(dp2635
g92
g93
ssg81
g2629
sg74
(lp2636
S'REMOTE_ADDR'
p2637
asbag67
(g88
g69
NtRp2638
(dp2639
g72
(dp2640
g99
g100
ssg81
g2629
sg74
(lp2641
S':'
asbag67
(g88
g69
NtRp2642
(dp2643
g72
(dp2644
sg81
g2629
sg74
(lp2645
g67
(g68
g69
NtRp2646
(dp2647
g72
(dp2648
g80
I3
ssg81
g2642
sg74
(lp2649
g200
asbasbasbag67
(g83
g69
NtRp2650
(dp2651
g72
(dp2652
sg81
g2415
sg74
(lp2653
g67
(g88
g69
NtRp2654
(dp2655
g72
(dp2656
g92
g93
ssg81
g2650
sg74
(lp2657
S'REMOTE_PORT'
p2658
asbag67
(g88
g69
NtRp2659
(dp2660
g72
(dp2661
g99
g100
ssg81
g2650
sg74
(lp2662
S':'
asbag67
(g88
g69
NtRp2663
(dp2664
g72
(dp2665
sg81
g2650
sg74
(lp2666
g67
(g68
g69
NtRp2667
(dp2668
g72
(dp2669
g80
I3
ssg81
g2663
sg74
(lp2670
g1295
asbasbasbag67
(g83
g69
NtRp2671
(dp2672
g72
(dp2673
sg81
g2415
sg74
(lp2674
g67
(g88
g69
NtRp2675
(dp2676
g72
(dp2677
g92
g93
ssg81
g2671
sg74
(lp2678
S'REQUEST_METHOD'
p2679
asbag67
(g88
g69
NtRp2680
(dp2681
g72
(dp2682
g99
g100
ssg81
g2671
sg74
(lp2683
S':'
asbag67
(g88
g69
NtRp2684
(dp2685
g72
(dp2686
sg81
g2671
sg74
(lp2687
g67
(g68
g69
NtRp2688
(dp2689
g72
(dp2690
g80
I3
ssg81
g2684
sg74
(lp2691
g1317
asbasbasbag67
(g83
g69
NtRp2692
(dp2693
g72
(dp2694
sg81
g2415
sg74
(lp2695
g67
(g88
g69
NtRp2696
(dp2697
g72
(dp2698
g92
g93
ssg81
g2692
sg74
(lp2699
S'SCRIPT_NAME'
p2700
asbag67
(g88
g69
NtRp2701
(dp2702
g72
(dp2703
g99
g100
ssg81
g2692
sg74
(lp2704
S':'
asbag67
(g88
g69
NtRp2705
(dp2706
g72
(dp2707
sg81
g2692
sg74
(lp2708
g67
(g68
g69
NtRp2709
(dp2710
g72
(dp2711
g80
I3
ssg81
g2705
sg74
(lp2712
S''
asbasbasbag67
(g83
g69
NtRp2713
(dp2714
g72
(dp2715
sg81
g2415
sg74
(lp2716
g67
(g88
g69
NtRp2717
(dp2718
g72
(dp2719
g92
g93
ssg81
g2713
sg74
(lp2720
S'SERVER_NAME'
p2721
asbag67
(g88
g69
NtRp2722
(dp2723
g72
(dp2724
g99
g100
ssg81
g2713
sg74
(lp2725
S':'
asbag67
(g88
g69
NtRp2726
(dp2727
g72
(dp2728
sg81
g2713
sg74
(lp2729
g67
(g68
g69
NtRp2730
(dp2731
g72
(dp2732
g80
I3
ssg81
g2726
sg74
(lp2733
g1360
asbasbasbag67
(g83
g69
NtRp2734
(dp2735
g72
(dp2736
sg81
g2415
sg74
(lp2737
g67
(g88
g69
NtRp2738
(dp2739
g72
(dp2740
g92
g93
ssg81
g2734
sg74
(lp2741
S'SERVER_PORT'
p2742
asbag67
(g88
g69
NtRp2743
(dp2744
g72
(dp2745
g99
g100
ssg81
g2734
sg74
(lp2746
S':'
asbag67
(g88
g69
NtRp2747
(dp2748
g72
(dp2749
sg81
g2734
sg74
(lp2750
g67
(g68
g69
NtRp2751
(dp2752
g72
(dp2753
g80
I3
ssg81
g2747
sg74
(lp2754
g1382
asbasbasbag67
(g83
g69
NtRp2755
(dp2756
g72
(dp2757
sg81
g2415
sg74
(lp2758
g67
(g88
g69
NtRp2759
(dp2760
g72
(dp2761
g92
g93
ssg81
g2755
sg74
(lp2762
S'SERVER_PROTOCOL'
p2763
asbag67
(g88
g69
NtRp2764
(dp2765
g72
(dp2766
g99
g100
ssg81
g2755
sg74
(lp2767
S':'
asbag67
(g88
g69
NtRp2768
(dp2769
g72
(dp2770
sg81
g2755
sg74
(lp2771
g67
(g68
g69
NtRp2772
(dp2773
g72
(dp2774
g80
I3
ssg81
g2768
sg74
(lp2775
g1404
asbasbasbag67
(g83
g69
NtRp2776
(dp2777
g72
(dp2778
sg81
g2415
sg74
(lp2779
g67
(g88
g69
NtRp2780
(dp2781
g72
(dp2782
g92
g93
ssg81
g2776
sg74
(lp2783
S'SERVER_SOFTWARE'
p2784
asbag67
(g88
g69
NtRp2785
(dp2786
g72
(dp2787
g99
g100
ssg81
g2776
sg74
(lp2788
S':'
asbag67
(g88
g69
NtRp2789
(dp2790
g72
(dp2791
sg81
g2776
sg74
(lp2792
g67
(g68
g69
NtRp2793
(dp2794
g72
(dp2795
g80
I3
ssg81
g2789
sg74
(lp2796
g1426
asbasbasbag67
(g83
g69
NtRp2797
(dp2798
g72
(dp2799
sg81
g2415
sg74
(lp2800
g67
(g88
g69
NtRp2801
(dp2802
g72
(dp2803
g92
g93
ssg81
g2797
sg74
(lp2804
S'wsgi.errors'
p2805
asbag67
(g88
g69
NtRp2806
(dp2807
g72
(dp2808
g99
g100
ssg81
g2797
sg74
(lp2809
S':'
asbag67
(g88
g69
NtRp2810
(dp2811
g72
(dp2812
sg81
g2797
sg74
(lp2813
g67
(g68
g69
NtRp2814
(dp2815
g72
(dp2816
g80
I3
ssg81
g2810
sg74
(lp2817
S"<open file '<stderr>', mode 'w' at 0x100283270>"
p2818
asbasbasbag67
(g83
g69
NtRp2819
(dp2820
g72
(dp2821
sg81
g2415
sg74
(lp2822
g67
(g88
g69
NtRp2823
(dp2824
g72
(dp2825
g92
g93
ssg81
g2819
sg74
(lp2826
S'wsgi.file_wrapper'
p2827
asbag67
(g88
g69
NtRp2828
(dp2829
g72
(dp2830
g99
g100
ssg81
g2819
sg74
(lp2831
S':'
asbag67
(g88
g69
NtRp2832
(dp2833
g72
(dp2834
sg81
g2819
sg74
(lp2835
g67
(g68
g69
NtRp2836
(dp2837
g72
(dp2838
g80
I3
ssg81
g2832
sg74
(lp2839
S'<class wsgiref.util.FileWrapper at 0x1016a5b48>'
p2840
asbasbasbag67
(g83
g69
NtRp2841
(dp2842
g72
(dp2843
sg81
g2415
sg74
(lp2844
g67
(g88
g69
NtRp2845
(dp2846
g72
(dp2847
g92
g93
ssg81
g2841
sg74
(lp2848
S'wsgi.input'
p2849
asbag67
(g88
g69
NtRp2850
(dp2851
g72
(dp2852
g99
g100
ssg81
g2841
sg74
(lp2853
S':'
asbag67
(g88
g69
NtRp2854
(dp2855
g72
(dp2856
sg81
g2841
sg74
(lp2857
g67
(g68
g69
NtRp2858
(dp2859
g72
(dp2860
g80
I3
ssg81
g2854
sg74
(lp2861
S'<cStringIO.StringO object at 0x11b514df8>'
p2862
asbasbasbag67
(g83
g69
NtRp2863
(dp2864
g72
(dp2865
sg81
g2415
sg74
(lp2866
g67
(g88
g69
NtRp2867
(dp2868
g72
(dp2869
g92
g93
ssg81
g2863
sg74
(lp2870
S'wsgi.multiprocess'
p2871
asbag67
(g88
g69
NtRp2872
(dp2873
g72
(dp2874
g99
g100
ssg81
g2863
sg74
(lp2875
S':'
asbag67
(g88
g69
NtRp2876
(dp2877
g72
(dp2878
sg81
g2863
sg74
(lp2879
g67
(g68
g69
NtRp2880
(dp2881
g72
(dp2882
g80
I3
ssg81
g2876
sg74
(lp2883
g110
asbasbasbag67
(g83
g69
NtRp2884
(dp2885
g72
(dp2886
sg81
g2415
sg74
(lp2887
g67
(g88
g69
NtRp2888
(dp2889
g72
(dp2890
g92
g93
ssg81
g2884
sg74
(lp2891
S'wsgi.multithread'
p2892
asbag67
(g88
g69
NtRp2893
(dp2894
g72
(dp2895
g99
g100
ssg81
g2884
sg74
(lp2896
S':'
asbag67
(g88
g69
NtRp2897
(dp2898
g72
(dp2899
sg81
g2884
sg74
(lp2900
g67
(g68
g69
NtRp2901
(dp2902
g72
(dp2903
g80
I3
ssg81
g2897
sg74
(lp2904
g1666
asbasbasbag67
(g83
g69
NtRp2905
(dp2906
g72
(dp2907
sg81
g2415
sg74
(lp2908
g67
(g88
g69
NtRp2909
(dp2910
g72
(dp2911
g92
g93
ssg81
g2905
sg74
(lp2912
S'wsgi.run_once'
p2913
asbag67
(g88
g69
NtRp2914
(dp2915
g72
(dp2916
g99
g100
ssg81
g2905
sg74
(lp2917
S':'
asbag67
(g88
g69
NtRp2918
(dp2919
g72
(dp2920
sg81
g2905
sg74
(lp2921
g67
(g68
g69
NtRp2922
(dp2923
g72
(dp2924
g80
I3
ssg81
g2918
sg74
(lp2925
g110
asbasbasbag67
(g83
g69
NtRp2926
(dp2927
g72
(dp2928
sg81
g2415
sg74
(lp2929
g67
(g88
g69
NtRp2930
(dp2931
g72
(dp2932
g92
g93
ssg81
g2926
sg74
(lp2933
S'wsgi.url_scheme'
p2934
asbag67
(g88
g69
NtRp2935
(dp2936
g72
(dp2937
g99
g100
ssg81
g2926
sg74
(lp2938
S':'
asbag67
(g88
g69
NtRp2939
(dp2940
g72
(dp2941
sg81
g2926
sg74
(lp2942
g67
(g68
g69
NtRp2943
(dp2944
g72
(dp2945
g80
I3
ssg81
g2939
sg74
(lp2946
g1709
asbasbasbag67
(g83
g69
NtRp2947
(dp2948
g72
(dp2949
sg81
g2415
sg74
(lp2950
g67
(g88
g69
NtRp2951
(dp2952
g72
(dp2953
g92
g93
ssg81
g2947
sg74
(lp2954
S'wsgi.version'
p2955
asbag67
(g88
g69
NtRp2956
(dp2957
g72
(dp2958
g99
g100
ssg81
g2947
sg74
(lp2959
S':'
asbag67
(g88
g69
NtRp2960
(dp2961
g72
(dp2962
sg81
g2947
sg74
(lp2963
g67
(g68
g69
NtRp2964
(dp2965
g72
(dp2966
g80
I3
ssg81
g2960
sg74
(lp2967
S'1'
asbasbasbasbasbasbasbasbasbasbasbasbasbsS'frames'
p2968
(lp2969
(dp2970
S'file'
p2971
S'/Users/cyan/Package/GitHub/funback/web2py/gluon/restricted.py'
p2972
sS'dump'
p2973
(dp2974
S'environment'
p2975
S"{'A': <class 'gluon.html.A'>, 'Auth': <class 'gluon.tools.Auth'>, 'B': <class 'gluon.html.B'>, 'BEAUTIFY': <class 'gluon.html.BEAUTIFY'>, 'BODY': <class 'gluon.html.BODY'>, 'BR': <class 'gluon.html.BR'>, 'BUTTON': <class 'gluon.html.BUTTON'>, 'CAT': <class 'gluon.html.CAT'>, 'CENTER': <class 'gluon.html.CENTER'>, 'CLEANUP': <class 'gluon.validators.CLEANUP'>, ...}"
p2976
sS'ccode'
p2977
S'<code object <module> at 0x11b51b330, file "/Use.../applications/funback/models/account.py", line 9>'
p2978
ssS'lnum'
p2979
I205
sS'lines'
p2980
(dp2981
I200
S'    try:'
p2982
sI201
S'        if type(code) == types.CodeType:'
p2983
sI202
S'            ccode = code'
p2984
sI203
S'        else:'
p2985
sI204
S'            ccode = compile2(code,layer)'
p2986
sI205
S'        exec ccode in environment'
p2987
sI206
S'    except HTTP:'
p2988
sI207
S'        raise'
p2989
sI208
S'    except RestrictedError:'
p2990
sI209
S'        # do not encapsulate (obfuscate) the original RestrictedError'
p2991
ssS'call'
p2992
S'(code="#########################################\\n## dat...res = IS_IN_DB(db, db.user_login.id, \'%(email)s\')", environment={\'A\': <class \'gluon.html.A\'>, \'Auth\': <class \'gluon.tools.Auth\'>, \'B\': <class \'gluon.html.B\'>, \'BEAUTIFY\': <class \'gluon.html.BEAUTIFY\'>, \'BODY\': <class \'gluon.html.BODY\'>, \'BR\': <class \'gluon.html.BR\'>, \'BUTTON\': <class \'gluon.html.BUTTON\'>, \'CAT\': <class \'gluon.html.CAT\'>, \'CENTER\': <class \'gluon.html.CENTER\'>, \'CLEANUP\': <class \'gluon.validators.CLEANUP\'>, ...}, layer=\'/Users/cyan/Package/GitHub/funback/web2py/applications/funback/models/account.py\')'
p2993
sS'func'
p2994
S'restricted'
p2995
sa(dp2996
g2971
S'/Users/cyan/Package/GitHub/funback/web2py/applications/funback/models/account.py'
p2997
sg2973
(dp2998
S'auth.define_tables'
p2999
S'<bound method Auth.define_tables of <gluon.tools.Auth object>>'
p3000
sS'auth'
p3001
S'<gluon.tools.Auth object>'
p3002
ssg2979
I40
sg2980
(dp3003
I35
S'auth.settings.table_membership_name = "user_membership"'
p3004
sI36
S'auth.settings.table_permission_name = "user_permission"'
p3005
sI37
S'auth.settings.table_event_name = "user_event"'
p3006
sI38
S''
sI39
S'## create all tables needed by Auth'
p3007
sI40
S'auth.define_tables()'
p3008
sI41
S''
sI42
S'## disable the default group creation behavior upon each user creation'
p3009
sI43
S'auth.settings.create_user_groups = False'
p3010
sI44
S'## turn on email verification upon registration and password reset'
p3011
ssg2992
S'()'
p3012
sg2994
S'<module>'
p3013
sa(dp3014
g2971
S'/Users/cyan/Package/GitHub/funback/web2py/gluon/tools.py'
p3015
sg2973
(dp3016
S'builtinformat'
p3017
S'<built-in function format>'
p3018
ssg2979
I1309
sg2980
(dp3019
I1312
S'            table.last_name.requires = \\'
p3020
sI1313
S'                IS_NOT_EMPTY(error_message=self.messages.is_empty)'
p3021
sI1304
S'                    *settings.extra_fields.get(settings.table_user_name,[]),'
p3022
sI1305
S'                    **dict('
p3023
sI1306
S'                        migrate=self.__get_migrate(settings.table_user_name,'
p3024
sI1307
S'                                                   migrate),'
p3025
sI1308
S'                        fake_migrate=fake_migrate,'
p3026
sI1309
S"                        format='%(first_name)s %(last_name)s (%(id)s)'))"
p3027
sI1310
S'            table.first_name.requires = \\'
p3028
sI1311
S'                IS_NOT_EMPTY(error_message=self.messages.is_empty)'
p3029
ssg2992
S'(self=<gluon.tools.Auth object>, username=False, migrate=True, fake_migrate=False)'
p3030
sg2994
S'define_tables'
p3031
sa(dp3032
g2971
S'/Users/cyan/Package/GitHub/funback/web2py/gluon/dal.py'
p3033
sg2973
(dp3034
S'polymodel'
p3035
S'None'
p3036
ssg2979
I6320
sg2980
(dp3037
I6315
S"        if migrate or self._adapter.dbengine=='google:datastore':"
p3038
sI6316
S'            try:'
p3039
sI6317
S'                sql_locker.acquire()'
p3040
sI6318
S'                self._adapter.create_table(t,migrate=migrate,'
p3041
sI6319
S'                                           fake_migrate=fake_migrate,'
p3042
sI6320
S'                                           polymodel=polymodel)'
p3043
sI6321
S'            finally:'
p3044
sI6322
S'                sql_locker.release()'
p3045
sI6323
S'        else:'
p3046
sI6324
S'            t._dbt = None'
p3047
ssg2992
S"(self=<DAL {'_migrate_enabled': True, '_lastsql': 'CRE...'_uri_hash': 'cf5ce18c2e72df134411219c6aec9a2c'}>, tablename='user_login', *fields=(<gluon.dal.Field object>, <gluon.dal.Field object>, <gluon.dal.Field object>, <gluon.dal.Field object>, <gluon.dal.Field object>, <gluon.dal.Field object>, <gluon.dal.Field object>), **args={'fake_migrate': False, 'format': '%(first_name)s %(last_name)s (%(id)s)', 'migrate': True})"
p3048
sg2994
S'define_table'
p3049
sa(dp3050
g2971
S'/Users/cyan/Package/GitHub/funback/web2py/gluon/dal.py'
p3051
sg2973
(dp3052
S'query'
p3053
S"'CREATE TABLE user_login(\\n    id SERIAL PRIMARY K...VARCHAR(512),\\n    registration_id VARCHAR(512)\\n);'"
p3054
sS'self'
p3055
S'<gluon.dal.PostgreSQLAdapter object>'
p3056
sS'table'
p3057
S"<Table {'ALL': <gluon.dal.SQLALL object at 0x101..., 'id': <gluon.dal.Field object at 0x10185e110>}>"
p3058
sS'self.create_sequence_and_triggers'
p3059
S'<bound method PostgreSQLAdapter.create_sequence_...triggers of <gluon.dal.PostgreSQLAdapter object>>'
p3060
ssg2979
I719
sg2980
(dp3061
I714
S'            if table._dbt:'
p3062
sI715
S"                logfile.write('timestamp: %s\\n'"
p3063
sI716
S'                               % datetime.datetime.today().isoformat())'
p3064
sI717
S"                logfile.write(query + '\\n')"
p3065
sI718
S'            if not fake_migrate:'
p3066
sI719
S'                self.create_sequence_and_triggers(query,table)'
p3067
sI720
S'                table._db.commit()'
p3068
sI721
S'            if table._dbt:'
p3069
sI722
S"                tfile = self.file_open(table._dbt, 'w')"
p3070
sI723
S'                cPickle.dump(sql_fields, tfile)'
p3071
ssg2992
S"(self=<gluon.dal.PostgreSQLAdapter object>, table=<Table {'ALL': <gluon.dal.SQLALL object at 0x101..., 'id': <gluon.dal.Field object at 0x10185e110>}>, migrate=True, fake_migrate=False, polymodel=None)"
p3072
sg2994
S'create_table'
p3073
sa(dp3074
g2971
S'/Users/cyan/Package/GitHub/funback/web2py/gluon/dal.py'
p3075
sg2973
(dp3076
S'query'
p3077
S"'CREATE TABLE user_login(\\n    id SERIAL PRIMARY K...VARCHAR(512),\\n    registration_id VARCHAR(512)\\n);'"
p3078
sS'self'
p3079
S'<gluon.dal.PostgreSQLAdapter object>'
p3080
sS'self.execute'
p3081
S'<bound method PostgreSQLAdapter.execute of <gluon.dal.PostgreSQLAdapter object>>'
p3082
ssg2979
I1954
sg2980
(dp3083
I1952
S'        # self.execute("ALTER TABLE %s ALTER COLUMN %s SET DEFAULT NEXTVAL(\'%s\');" \\'
p3084
sI1953
S'        #              % (table._tablename, table._fieldname, table._sequence_name))'
p3085
sI1954
S'        self.execute(query)'
p3086
sI1955
S''
sI1956
S"    def __init__(self,db,uri,pool_size=0,folder=None,db_codec ='UTF-8',"
p3087
sI1957
S'                 credential_decoder=lambda x:x, driver_args={},'
p3088
sI1958
S'                 adapter_args={}):'
p3089
sI1949
S'    def create_sequence_and_triggers(self, query, table, **args):'
p3090
sI1950
S'        # following lines should only be executed if table._sequence_name does not exist'
p3091
sI1951
S"        # self.execute('CREATE SEQUENCE %s;' % table._sequence_name)"
p3092
ssg2992
S"(self=<gluon.dal.PostgreSQLAdapter object>, query='CREATE TABLE user_login(\\n    id SERIAL PRIMARY K...VARCHAR(512),\\n    registration_id VARCHAR(512)\\n);', table=<Table {'ALL': <gluon.dal.SQLALL object at 0x101..., 'id': <gluon.dal.Field object at 0x10185e110>}>, **args={})"
p3093
sg2994
S'create_sequence_and_triggers'
p3094
sa(dp3095
g2971
S'/Users/cyan/Package/GitHub/funback/web2py/gluon/dal.py'
p3096
sg2973
(dp3097
S'a'
S"('CREATE TABLE user_login(\\n    id SERIAL PRIMARY K...VARCHAR(512),\\n    registration_id VARCHAR(512)\\n);',)"
p3098
sS'self'
p3099
S'<gluon.dal.PostgreSQLAdapter object>'
p3100
sS'b'
S'{}'
p3101
sS'self.log_execute'
p3102
S'<bound method PostgreSQLAdapter.log_execute of <gluon.dal.PostgreSQLAdapter object>>'
p3103
ssg2979
I1392
sg2980
(dp3104
I1387
S'        self.db._timings.append((a[0],time.time()-t0))'
p3105
sI1388
S'        del self.db._timings[:-TIMINGSSIZE]'
p3106
sI1389
S'        return ret'
p3107
sI1390
S''
sI1391
S'    def execute(self, *a, **b):'
p3108
sI1392
S'        return self.log_execute(*a, **b)'
p3109
sI1393
S''
sI1394
S'    def represent(self, obj, fieldtype):'
p3110
sI1395
S'        if isinstance(obj, CALLABLETYPES):'
p3111
sI1396
S'            obj = obj()'
p3112
ssg2992
S"(self=<gluon.dal.PostgreSQLAdapter object>, *a=('CREATE TABLE user_login(\\n    id SERIAL PRIMARY K...VARCHAR(512),\\n    registration_id VARCHAR(512)\\n);',), **b={})"
p3113
sg2994
S'execute'
p3114
sa(dp3115
g2971
S'/Users/cyan/Package/GitHub/funback/web2py/gluon/dal.py'
p3116
sg2973
(dp3117
S'a'
S"('CREATE TABLE user_login(\\n    id SERIAL PRIMARY K...VARCHAR(512),\\n    registration_id VARCHAR(512)\\n);',)"
p3118
sS'b'
g3101
sS'self'
p3119
S'<gluon.dal.PostgreSQLAdapter object>'
p3120
sS'ret'
p3121
S'undefined'
p3122
sS'self.cursor'
p3123
S'<cursor object at 0x11b544718; closed: 0>'
p3124
sS'self.cursor.execute'
p3125
S'<built-in method execute of psycopg2._psycopg.cursor object>'
p3126
ssg2979
I1386
sg2980
(dp3127
I1381
S'        self.execute(query)'
p3128
sI1382
S''
sI1383
S'    def log_execute(self, *a, **b):'
p3129
sI1384
S'        self.db._lastsql = a[0]'
p3130
sI1385
S'        t0 = time.time()'
p3131
sI1386
S'        ret = self.cursor.execute(*a, **b)'
p3132
sI1387
S'        self.db._timings.append((a[0],time.time()-t0))'
p3133
sI1388
S'        del self.db._timings[:-TIMINGSSIZE]'
p3134
sI1389
S'        return ret'
p3135
sI1390
S''
ssg2992
S"(self=<gluon.dal.PostgreSQLAdapter object>, *a=('CREATE TABLE user_login(\\n    id SERIAL PRIMARY K...VARCHAR(512),\\n    registration_id VARCHAR(512)\\n);',), **b={})"
p3136
sg2994
S'log_execute'
p3137
sasS'pyver'
p3138
S'Python 2.7.2: /Library/Frameworks/Python.framework/Versions/2.7/Resources/Python.app/Contents/MacOS/Python'
p3139
sS'session'
p3140
g67
(g68
g69
NtRp3141
(dp3142
g72
(dp3143
sg74
(lp3144
g67
(g76
g69
NtRp3145
(dp3146
g72
(dp3147
g80
I5
ssg81
Nsg74
(lp3148
g67
(g83
g69
NtRp3149
(dp3150
g72
(dp3151
sg81
g3145
sg74
(lp3152
g67
(g88
g69
NtRp3153
(dp3154
g72
(dp3155
g92
g93
ssg81
g3149
sg74
(lp3156
S'email'
p3157
asbag67
(g88
g69
NtRp3158
(dp3159
g72
(dp3160
g99
g100
ssg81
g3149
sg74
(lp3161
S':'
asbag67
(g88
g69
NtRp3162
(dp3163
g72
(dp3164
sg81
g3149
sg74
(lp3165
g67
(g68
g69
NtRp3166
(dp3167
g72
(dp3168
g80
I5
ssg81
g3162
sg74
(lp3169
S'chang.yan@balliol.ox.ac.uk'
p3170
asbasbasbag67
(g83
g69
NtRp3171
(dp3172
g72
(dp3173
sg81
g3145
sg74
(lp3174
g67
(g88
g69
NtRp3175
(dp3176
g72
(dp3177
g92
g93
ssg81
g3171
sg74
(lp3178
S'password'
p3179
asbag67
(g88
g69
NtRp3180
(dp3181
g72
(dp3182
g99
g100
ssg81
g3171
sg74
(lp3183
S':'
asbag67
(g88
g69
NtRp3184
(dp3185
g72
(dp3186
sg81
g3171
sg74
(lp3187
g67
(g68
g69
NtRp3188
(dp3189
g72
(dp3190
g80
I5
ssg81
g3184
sg74
(lp3191
S'4e367adaff7336dbc42b9e2964fa3cac'
p3192
asbasbasbasbasbsS'etype'
p3193
S"<class 'psycopg2.ProgrammingError'>"
p3194
sS'date'
p3195
S'Thu Apr 19 13:04:55 2012'
p3196
sS'response'
p3197
g67
(g68
g69
NtRp3198
(dp3199
g72
(dp3200
sg74
(lp3201
g67
(g76
g69
NtRp3202
(dp3203
g72
(dp3204
g80
I5
ssg81
Nsg74
(lp3205
g67
(g83
g69
NtRp3206
(dp3207
g72
(dp3208
sg81
g3202
sg74
(lp3209
g67
(g88
g69
NtRp3210
(dp3211
g72
(dp3212
g92
g93
ssg81
g3206
sg74
(lp3213
g165
asbag67
(g88
g69
NtRp3214
(dp3215
g72
(dp3216
g99
g100
ssg81
g3206
sg74
(lp3217
S':'
asbag67
(g88
g69
NtRp3218
(dp3219
g72
(dp3220
sg81
g3206
sg74
(lp3221
g67
(g68
g69
NtRp3222
(dp3223
g72
(dp3224
g80
I5
ssg81
g3218
sg74
(lp3225
S'<cStringIO.StringO object at 0x11b514d88>'
p3226
asbasbasbag67
(g83
g69
NtRp3227
(dp3228
g72
(dp3229
sg81
g3202
sg74
(lp3230
g67
(g88
g69
NtRp3231
(dp3232
g72
(dp3233
g92
g93
ssg81
g3227
sg74
(lp3234
g231
asbag67
(g88
g69
NtRp3235
(dp3236
g72
(dp3237
g99
g100
ssg81
g3227
sg74
(lp3238
S':'
asbag67
(g88
g69
NtRp3239
(dp3240
g72
(dp3241
sg81
g3227
sg74
(lp3242
g67
(g68
g69
NtRp3243
(dp3244
g72
(dp3245
g80
I5
ssg81
g3239
sg74
(lp3246
g67
(g76
g69
NtRp3247
(dp3248
g72
(dp3249
g80
I4
ssg81
Nsg74
(lp3250
g67
(g83
g69
NtRp3251
(dp3252
g72
(dp3253
sg81
g3247
sg74
(lp3254
g67
(g88
g69
NtRp3255
(dp3256
g72
(dp3257
g92
g93
ssg81
g3251
sg74
(lp3258
S'session_id_funback'
p3259
asbag67
(g88
g69
NtRp3260
(dp3261
g72
(dp3262
g99
g100
ssg81
g3251
sg74
(lp3263
S':'
asbag67
(g88
g69
NtRp3264
(dp3265
g72
(dp3266
sg81
g3251
sg74
(lp3267
g67
(g68
g69
NtRp3268
(dp3269
g72
(dp3270
g80
I4
ssg81
g3264
sg74
(lp3271
g67
(g76
g69
NtRp3272
(dp3273
g72
(dp3274
g80
I3
ssg81
Nsg74
(lp3275
g67
(g83
g69
NtRp3276
(dp3277
g72
(dp3278
sg81
g3272
sg74
(lp3279
g67
(g88
g69
NtRp3280
(dp3281
g72
(dp3282
g92
g93
ssg81
g3276
sg74
(lp3283
g281
asbag67
(g88
g69
NtRp3284
(dp3285
g72
(dp3286
g99
g100
ssg81
g3276
sg74
(lp3287
S':'
asbag67
(g88
g69
NtRp3288
(dp3289
g72
(dp3290
sg81
g3276
sg74
(lp3291
g67
(g68
g69
NtRp3292
(dp3293
g72
(dp3294
g80
I3
ssg81
g3288
sg74
(lp3295
S''
asbasbasbag67
(g83
g69
NtRp3296
(dp3297
g72
(dp3298
sg81
g3272
sg74
(lp3299
g67
(g88
g69
NtRp3300
(dp3301
g72
(dp3302
g92
g93
ssg81
g3296
sg74
(lp3303
g302
asbag67
(g88
g69
NtRp3304
(dp3305
g72
(dp3306
g99
g100
ssg81
g3296
sg74
(lp3307
S':'
asbag67
(g88
g69
NtRp3308
(dp3309
g72
(dp3310
sg81
g3296
sg74
(lp3311
g67
(g68
g69
NtRp3312
(dp3313
g72
(dp3314
g80
I3
ssg81
g3308
sg74
(lp3315
S''
asbasbasbag67
(g83
g69
NtRp3316
(dp3317
g72
(dp3318
sg81
g3272
sg74
(lp3319
g67
(g88
g69
NtRp3320
(dp3321
g72
(dp3322
g92
g93
ssg81
g3316
sg74
(lp3323
g323
asbag67
(g88
g69
NtRp3324
(dp3325
g72
(dp3326
g99
g100
ssg81
g3316
sg74
(lp3327
S':'
asbag67
(g88
g69
NtRp3328
(dp3329
g72
(dp3330
sg81
g3316
sg74
(lp3331
g67
(g68
g69
NtRp3332
(dp3333
g72
(dp3334
g80
I3
ssg81
g3328
sg74
(lp3335
S''
asbasbasbag67
(g83
g69
NtRp3336
(dp3337
g72
(dp3338
sg81
g3272
sg74
(lp3339
g67
(g88
g69
NtRp3340
(dp3341
g72
(dp3342
g92
g93
ssg81
g3336
sg74
(lp3343
g344
asbag67
(g88
g69
NtRp3344
(dp3345
g72
(dp3346
g99
g100
ssg81
g3336
sg74
(lp3347
S':'
asbag67
(g88
g69
NtRp3348
(dp3349
g72
(dp3350
sg81
g3336
sg74
(lp3351
g67
(g68
g69
NtRp3352
(dp3353
g72
(dp3354
g80
I3
ssg81
g3348
sg74
(lp3355
S''
asbasbasbag67
(g83
g69
NtRp3356
(dp3357
g72
(dp3358
sg81
g3272
sg74
(lp3359
g67
(g88
g69
NtRp3360
(dp3361
g72
(dp3362
g92
g93
ssg81
g3356
sg74
(lp3363
g365
asbag67
(g88
g69
NtRp3364
(dp3365
g72
(dp3366
g99
g100
ssg81
g3356
sg74
(lp3367
S':'
asbag67
(g88
g69
NtRp3368
(dp3369
g72
(dp3370
sg81
g3356
sg74
(lp3371
g67
(g68
g69
NtRp3372
(dp3373
g72
(dp3374
g80
I3
ssg81
g3368
sg74
(lp3375
S''
asbasbasbag67
(g83
g69
NtRp3376
(dp3377
g72
(dp3378
sg81
g3272
sg74
(lp3379
g67
(g88
g69
NtRp3380
(dp3381
g72
(dp3382
g92
g93
ssg81
g3376
sg74
(lp3383
g386
asbag67
(g88
g69
NtRp3384
(dp3385
g72
(dp3386
g99
g100
ssg81
g3376
sg74
(lp3387
S':'
asbag67
(g88
g69
NtRp3388
(dp3389
g72
(dp3390
sg81
g3376
sg74
(lp3391
g67
(g68
g69
NtRp3392
(dp3393
g72
(dp3394
g80
I3
ssg81
g3388
sg74
(lp3395
S'/'
asbasbasbag67
(g83
g69
NtRp3396
(dp3397
g72
(dp3398
sg81
g3272
sg74
(lp3399
g67
(g88
g69
NtRp3400
(dp3401
g72
(dp3402
g92
g93
ssg81
g3396
sg74
(lp3403
g407
asbag67
(g88
g69
NtRp3404
(dp3405
g72
(dp3406
g99
g100
ssg81
g3396
sg74
(lp3407
S':'
asbag67
(g88
g69
NtRp3408
(dp3409
g72
(dp3410
sg81
g3396
sg74
(lp3411
g67
(g68
g69
NtRp3412
(dp3413
g72
(dp3414
g80
I3
ssg81
g3408
sg74
(lp3415
S''
asbasbasbag67
(g83
g69
NtRp3416
(dp3417
g72
(dp3418
sg81
g3272
sg74
(lp3419
g67
(g88
g69
NtRp3420
(dp3421
g72
(dp3422
g92
g93
ssg81
g3416
sg74
(lp3423
g428
asbag67
(g88
g69
NtRp3424
(dp3425
g72
(dp3426
g99
g100
ssg81
g3416
sg74
(lp3427
S':'
asbag67
(g88
g69
NtRp3428
(dp3429
g72
(dp3430
sg81
g3416
sg74
(lp3431
g67
(g68
g69
NtRp3432
(dp3433
g72
(dp3434
g80
I3
ssg81
g3428
sg74
(lp3435
S''
asbasbasbasbasbasbasbasbasbasbasbag67
(g83
g69
NtRp3436
(dp3437
g72
(dp3438
sg81
g3202
sg74
(lp3439
g67
(g88
g69
NtRp3440
(dp3441
g72
(dp3442
g92
g93
ssg81
g3436
sg74
(lp3443
S'delimiters'
p3444
asbag67
(g88
g69
NtRp3445
(dp3446
g72
(dp3447
g99
g100
ssg81
g3436
sg74
(lp3448
S':'
asbag67
(g88
g69
NtRp3449
(dp3450
g72
(dp3451
sg81
g3436
sg74
(lp3452
g67
(g68
g69
NtRp3453
(dp3454
g72
(dp3455
g80
I5
ssg81
g3449
sg74
(lp3456
g67
(g76
g69
NtRp3457
(dp3458
g72
(dp3459
g80
I4
ssg81
Nsg74
(lp3460
g67
(g83
g69
NtRp3461
(dp3462
g72
(dp3463
sg81
g3457
sg74
(lp3464
g67
(g88
g69
NtRp3465
(dp3466
g72
(dp3467
sg81
g3461
sg74
(lp3468
g67
(g68
g69
NtRp3469
(dp3470
g72
(dp3471
g80
I4
ssg81
g3465
sg74
(lp3472
S'{{'
p3473
asbasbasbag67
(g83
g69
NtRp3474
(dp3475
g72
(dp3476
sg81
g3457
sg74
(lp3477
g67
(g88
g69
NtRp3478
(dp3479
g72
(dp3480
sg81
g3474
sg74
(lp3481
g67
(g68
g69
NtRp3482
(dp3483
g72
(dp3484
g80
I4
ssg81
g3478
sg74
(lp3485
S'}}'
p3486
asbasbasbasbasbasbasbag67
(g83
g69
NtRp3487
(dp3488
g72
(dp3489
sg81
g3202
sg74
(lp3490
g67
(g88
g69
NtRp3491
(dp3492
g72
(dp3493
g92
g93
ssg81
g3487
sg74
(lp3494
S'files'
p3495
asbag67
(g88
g69
NtRp3496
(dp3497
g72
(dp3498
g99
g100
ssg81
g3487
sg74
(lp3499
S':'
asbag67
(g88
g69
NtRp3500
(dp3501
g72
(dp3502
sg81
g3487
sg74
(lp3503
g67
(g68
g69
NtRp3504
(dp3505
g72
(dp3506
g80
I5
ssg81
g3500
sg74
(lp3507
g67
(g76
g69
NtRp3508
(dp3509
g72
(dp3510
g80
I4
ssg81
Nsg74
(lp3511
sbasbasbasbag67
(g83
g69
NtRp3512
(dp3513
g72
(dp3514
sg81
g3202
sg74
(lp3515
g67
(g88
g69
NtRp3516
(dp3517
g72
(dp3518
g92
g93
ssg81
g3512
sg74
(lp3519
S'flash'
p3520
asbag67
(g88
g69
NtRp3521
(dp3522
g72
(dp3523
g99
g100
ssg81
g3512
sg74
(lp3524
S':'
asbag67
(g88
g69
NtRp3525
(dp3526
g72
(dp3527
sg81
g3512
sg74
(lp3528
g67
(g68
g69
NtRp3529
(dp3530
g72
(dp3531
g80
I5
ssg81
g3525
sg74
(lp3532
S''
asbasbasbag67
(g83
g69
NtRp3533
(dp3534
g72
(dp3535
sg81
g3202
sg74
(lp3536
g67
(g88
g69
NtRp3537
(dp3538
g72
(dp3539
g92
g93
ssg81
g3533
sg74
(lp3540
S'generic_patterns'
p3541
asbag67
(g88
g69
NtRp3542
(dp3543
g72
(dp3544
g99
g100
ssg81
g3533
sg74
(lp3545
S':'
asbag67
(g88
g69
NtRp3546
(dp3547
g72
(dp3548
sg81
g3533
sg74
(lp3549
g67
(g68
g69
NtRp3550
(dp3551
g72
(dp3552
g80
I5
ssg81
g3546
sg74
(lp3553
g67
(g76
g69
NtRp3554
(dp3555
g72
(dp3556
g80
I4
ssg81
Nsg74
(lp3557
sbasbasbasbag67
(g83
g69
NtRp3558
(dp3559
g72
(dp3560
sg81
g3202
sg74
(lp3561
g67
(g88
g69
NtRp3562
(dp3563
g72
(dp3564
g92
g93
ssg81
g3558
sg74
(lp3565
S'headers'
p3566
asbag67
(g88
g69
NtRp3567
(dp3568
g72
(dp3569
g99
g100
ssg81
g3558
sg74
(lp3570
S':'
asbag67
(g88
g69
NtRp3571
(dp3572
g72
(dp3573
sg81
g3558
sg74
(lp3574
g67
(g68
g69
NtRp3575
(dp3576
g72
(dp3577
g80
I5
ssg81
g3571
sg74
(lp3578
g67
(g76
g69
NtRp3579
(dp3580
g72
(dp3581
g80
I4
ssg81
Nsg74
(lp3582
g67
(g83
g69
NtRp3583
(dp3584
g72
(dp3585
sg81
g3579
sg74
(lp3586
g67
(g88
g69
NtRp3587
(dp3588
g72
(dp3589
g92
g93
ssg81
g3583
sg74
(lp3590
S'Cache-Control'
p3591
asbag67
(g88
g69
NtRp3592
(dp3593
g72
(dp3594
g99
g100
ssg81
g3583
sg74
(lp3595
S':'
asbag67
(g88
g69
NtRp3596
(dp3597
g72
(dp3598
sg81
g3583
sg74
(lp3599
g67
(g68
g69
NtRp3600
(dp3601
g72
(dp3602
g80
I4
ssg81
g3596
sg74
(lp3603
S'no-store, no-cache, must-revalidate, post-check=0, pre-check=0'
p3604
asbasbasbag67
(g83
g69
NtRp3605
(dp3606
g72
(dp3607
sg81
g3579
sg74
(lp3608
g67
(g88
g69
NtRp3609
(dp3610
g72
(dp3611
g92
g93
ssg81
g3605
sg74
(lp3612
S'Content-Type'
p3613
asbag67
(g88
g69
NtRp3614
(dp3615
g72
(dp3616
g99
g100
ssg81
g3605
sg74
(lp3617
S':'
asbag67
(g88
g69
NtRp3618
(dp3619
g72
(dp3620
sg81
g3605
sg74
(lp3621
g67
(g68
g69
NtRp3622
(dp3623
g72
(dp3624
g80
I4
ssg81
g3618
sg74
(lp3625
S'text/html; charset=utf-8'
p3626
asbasbasbag67
(g83
g69
NtRp3627
(dp3628
g72
(dp3629
sg81
g3579
sg74
(lp3630
g67
(g88
g69
NtRp3631
(dp3632
g72
(dp3633
g92
g93
ssg81
g3627
sg74
(lp3634
S'Expires'
p3635
asbag67
(g88
g69
NtRp3636
(dp3637
g72
(dp3638
g99
g100
ssg81
g3627
sg74
(lp3639
S':'
asbag67
(g88
g69
NtRp3640
(dp3641
g72
(dp3642
sg81
g3627
sg74
(lp3643
g67
(g68
g69
NtRp3644
(dp3645
g72
(dp3646
g80
I4
ssg81
g3640
sg74
(lp3647
S'Thu, 19 Apr 2012 17:04:55 GMT'
p3648
asbasbasbag67
(g83
g69
NtRp3649
(dp3650
g72
(dp3651
sg81
g3579
sg74
(lp3652
g67
(g88
g69
NtRp3653
(dp3654
g72
(dp3655
g92
g93
ssg81
g3649
sg74
(lp3656
S'Pragma'
p3657
asbag67
(g88
g69
NtRp3658
(dp3659
g72
(dp3660
g99
g100
ssg81
g3649
sg74
(lp3661
S':'
asbag67
(g88
g69
NtRp3662
(dp3663
g72
(dp3664
sg81
g3649
sg74
(lp3665
g67
(g68
g69
NtRp3666
(dp3667
g72
(dp3668
g80
I4
ssg81
g3662
sg74
(lp3669
S'no-cache'
p3670
asbasbasbag67
(g83
g69
NtRp3671
(dp3672
g72
(dp3673
sg81
g3579
sg74
(lp3674
g67
(g88
g69
NtRp3675
(dp3676
g72
(dp3677
g92
g93
ssg81
g3671
sg74
(lp3678
S'X-Powered-By'
p3679
asbag67
(g88
g69
NtRp3680
(dp3681
g72
(dp3682
g99
g100
ssg81
g3671
sg74
(lp3683
S':'
asbag67
(g88
g69
NtRp3684
(dp3685
g72
(dp3686
sg81
g3671
sg74
(lp3687
g67
(g68
g69
NtRp3688
(dp3689
g72
(dp3690
g80
I4
ssg81
g3684
sg74
(lp3691
S'web2py'
p3692
asbasbasbasbasbasbasbag67
(g83
g69
NtRp3693
(dp3694
g72
(dp3695
sg81
g3202
sg74
(lp3696
g67
(g88
g69
NtRp3697
(dp3698
g72
(dp3699
g92
g93
ssg81
g3693
sg74
(lp3700
S'menu'
p3701
asbag67
(g88
g69
NtRp3702
(dp3703
g72
(dp3704
g99
g100
ssg81
g3693
sg74
(lp3705
S':'
asbag67
(g88
g69
NtRp3706
(dp3707
g72
(dp3708
sg81
g3693
sg74
(lp3709
g67
(g68
g69
NtRp3710
(dp3711
g72
(dp3712
g80
I5
ssg81
g3706
sg74
(lp3713
g67
(g76
g69
NtRp3714
(dp3715
g72
(dp3716
g80
I4
ssg81
Nsg74
(lp3717
sbasbasbasbag67
(g83
g69
NtRp3718
(dp3719
g72
(dp3720
sg81
g3202
sg74
(lp3721
g67
(g88
g69
NtRp3722
(dp3723
g72
(dp3724
g92
g93
ssg81
g3718
sg74
(lp3725
S'meta'
p3726
asbag67
(g88
g69
NtRp3727
(dp3728
g72
(dp3729
g99
g100
ssg81
g3718
sg74
(lp3730
S':'
asbag67
(g88
g69
NtRp3731
(dp3732
g72
(dp3733
sg81
g3718
sg74
(lp3734
g67
(g68
g69
NtRp3735
(dp3736
g72
(dp3737
g80
I5
ssg81
g3731
sg74
(lp3738
g67
(g76
g69
NtRp3739
(dp3740
g72
(dp3741
g80
I4
ssg81
Nsg74
(lp3742
sbasbasbasbag67
(g83
g69
NtRp3743
(dp3744
g72
(dp3745
sg81
g3202
sg74
(lp3746
g67
(g88
g69
NtRp3747
(dp3748
g72
(dp3749
g92
g93
ssg81
g3743
sg74
(lp3750
S'postprocessing'
p3751
asbag67
(g88
g69
NtRp3752
(dp3753
g72
(dp3754
g99
g100
ssg81
g3743
sg74
(lp3755
S':'
asbag67
(g88
g69
NtRp3756
(dp3757
g72
(dp3758
sg81
g3743
sg74
(lp3759
g67
(g68
g69
NtRp3760
(dp3761
g72
(dp3762
g80
I5
ssg81
g3756
sg74
(lp3763
g67
(g76
g69
NtRp3764
(dp3765
g72
(dp3766
g80
I4
ssg81
Nsg74
(lp3767
sbasbasbasbag67
(g83
g69
NtRp3768
(dp3769
g72
(dp3770
sg81
g3202
sg74
(lp3771
g67
(g88
g69
NtRp3772
(dp3773
g72
(dp3774
g92
g93
ssg81
g3768
sg74
(lp3775
S'session_file'
p3776
asbag67
(g88
g69
NtRp3777
(dp3778
g72
(dp3779
g99
g100
ssg81
g3768
sg74
(lp3780
S':'
asbag67
(g88
g69
NtRp3781
(dp3782
g72
(dp3783
sg81
g3768
sg74
(lp3784
g67
(g68
g69
NtRp3785
(dp3786
g72
(dp3787
g80
I5
ssg81
g3781
sg74
(lp3788
S"<open file '/Users/cyan/Package/GitHub/funback/web2py/applications/funback/sessions/127.0.0.1-e25f12f5-78b1-4973-96b7-3e18a5eced54', mode 'rb+' at 0x101494270>"
p3789
asbasbasbag67
(g83
g69
NtRp3790
(dp3791
g72
(dp3792
sg81
g3202
sg74
(lp3793
g67
(g88
g69
NtRp3794
(dp3795
g72
(dp3796
g92
g93
ssg81
g3790
sg74
(lp3797
S'session_filename'
p3798
asbag67
(g88
g69
NtRp3799
(dp3800
g72
(dp3801
g99
g100
ssg81
g3790
sg74
(lp3802
S':'
asbag67
(g88
g69
NtRp3803
(dp3804
g72
(dp3805
sg81
g3790
sg74
(lp3806
g67
(g68
g69
NtRp3807
(dp3808
g72
(dp3809
g80
I5
ssg81
g3803
sg74
(lp3810
S'/Users/cyan/Package/GitHub/funback/web2py/applications/funback/sessions/127.0.0.1-e25f12f5-78b1-4973-96b7-3e18a5eced54'
p3811
asbasbasbag67
(g83
g69
NtRp3812
(dp3813
g72
(dp3814
sg81
g3202
sg74
(lp3815
g67
(g88
g69
NtRp3816
(dp3817
g72
(dp3818
g92
g93
ssg81
g3812
sg74
(lp3819
S'session_id'
p3820
asbag67
(g88
g69
NtRp3821
(dp3822
g72
(dp3823
g99
g100
ssg81
g3812
sg74
(lp3824
S':'
asbag67
(g88
g69
NtRp3825
(dp3826
g72
(dp3827
sg81
g3812
sg74
(lp3828
g67
(g68
g69
NtRp3829
(dp3830
g72
(dp3831
g80
I5
ssg81
g3825
sg74
(lp3832
S'127.0.0.1-e25f12f5-78b1-4973-96b7-3e18a5eced54'
p3833
asbasbasbag67
(g83
g69
NtRp3834
(dp3835
g72
(dp3836
sg81
g3202
sg74
(lp3837
g67
(g88
g69
NtRp3838
(dp3839
g72
(dp3840
g92
g93
ssg81
g3834
sg74
(lp3841
S'session_id_name'
p3842
asbag67
(g88
g69
NtRp3843
(dp3844
g72
(dp3845
g99
g100
ssg81
g3834
sg74
(lp3846
S':'
asbag67
(g88
g69
NtRp3847
(dp3848
g72
(dp3849
sg81
g3834
sg74
(lp3850
g67
(g68
g69
NtRp3851
(dp3852
g72
(dp3853
g80
I5
ssg81
g3847
sg74
(lp3854
g3259
asbasbasbag67
(g83
g69
NtRp3855
(dp3856
g72
(dp3857
sg81
g3202
sg74
(lp3858
g67
(g88
g69
NtRp3859
(dp3860
g72
(dp3861
g92
g93
ssg81
g3855
sg74
(lp3862
S'session_locked'
p3863
asbag67
(g88
g69
NtRp3864
(dp3865
g72
(dp3866
g99
g100
ssg81
g3855
sg74
(lp3867
S':'
asbag67
(g88
g69
NtRp3868
(dp3869
g72
(dp3870
sg81
g3855
sg74
(lp3871
g67
(g68
g69
NtRp3872
(dp3873
g72
(dp3874
g80
I5
ssg81
g3868
sg74
(lp3875
g1666
asbasbasbag67
(g83
g69
NtRp3876
(dp3877
g72
(dp3878
sg81
g3202
sg74
(lp3879
g67
(g88
g69
NtRp3880
(dp3881
g72
(dp3882
g92
g93
ssg81
g3876
sg74
(lp3883
S'session_new'
p3884
asbag67
(g88
g69
NtRp3885
(dp3886
g72
(dp3887
g99
g100
ssg81
g3876
sg74
(lp3888
S':'
asbag67
(g88
g69
NtRp3889
(dp3890
g72
(dp3891
sg81
g3876
sg74
(lp3892
g67
(g68
g69
NtRp3893
(dp3894
g72
(dp3895
g80
I5
ssg81
g3889
sg74
(lp3896
g110
asbasbasbag67
(g83
g69
NtRp3897
(dp3898
g72
(dp3899
sg81
g3202
sg74
(lp3900
g67
(g88
g69
NtRp3901
(dp3902
g72
(dp3903
g92
g93
ssg81
g3897
sg74
(lp3904
S'status'
p3905
asbag67
(g88
g69
NtRp3906
(dp3907
g72
(dp3908
g99
g100
ssg81
g3897
sg74
(lp3909
S':'
asbag67
(g88
g69
NtRp3910
(dp3911
g72
(dp3912
sg81
g3897
sg74
(lp3913
g67
(g68
g69
NtRp3914
(dp3915
g72
(dp3916
g80
I5
ssg81
g3910
sg74
(lp3917
S'200'
p3918
asbasbasbag67
(g83
g69
NtRp3919
(dp3920
g72
(dp3921
sg81
g3202
sg74
(lp3922
g67
(g88
g69
NtRp3923
(dp3924
g72
(dp3925
g92
g93
ssg81
g3919
sg74
(lp3926
g2330
asbag67
(g88
g69
NtRp3927
(dp3928
g72
(dp3929
g99
g100
ssg81
g3919
sg74
(lp3930
S':'
asbag67
(g88
g69
NtRp3931
(dp3932
g72
(dp3933
sg81
g3919
sg74
(lp3934
g67
(g68
g69
NtRp3935
(dp3936
g72
(dp3937
g80
I5
ssg81
g3931
sg74
(lp3938
g2343
asbasbasbag67
(g83
g69
NtRp3939
(dp3940
g72
(dp3941
sg81
g3202
sg74
(lp3942
g67
(g88
g69
NtRp3943
(dp3944
g72
(dp3945
g92
g93
ssg81
g3939
sg74
(lp3946
S'view'
p3947
asbag67
(g88
g69
NtRp3948
(dp3949
g72
(dp3950
g99
g100
ssg81
g3939
sg74
(lp3951
S':'
asbag67
(g88
g69
NtRp3952
(dp3953
g72
(dp3954
sg81
g3939
sg74
(lp3955
g67
(g68
g69
NtRp3956
(dp3957
g72
(dp3958
g80
I5
ssg81
g3952
sg74
(lp3959
S'account/register.html'
p3960
asbasbasbasbasbsS'locals'
p3961
(dp3962
S'a'
S"('CREATE TABLE user_login(\\n    id SERIAL PRIMARY K...VARCHAR(512),\\n    registration_id VARCHAR(512)\\n);',)"
p3963
sS'self'
p3964
S'<gluon.dal.PostgreSQLAdapter object>'
p3965
sS'b'
g3101
sS't0'
p3966
S'1334855095.856275'
p3967
sssS'traceback'
p3968
S'Traceback (most recent call last):\n  File "/Users/cyan/Package/GitHub/funback/web2py/gluon/restricted.py", line 205, in restricted\n    exec ccode in environment\n  File "/Users/cyan/Package/GitHub/funback/web2py/applications/funback/models/account.py", line 40, in <module>\n    auth.define_tables()\n  File "/Users/cyan/Package/GitHub/funback/web2py/gluon/tools.py", line 1309, in define_tables\n    format=\'%(first_name)s %(last_name)s (%(id)s)\'))\n  File "/Users/cyan/Package/GitHub/funback/web2py/gluon/dal.py", line 6320, in define_table\n    polymodel=polymodel)\n  File "/Users/cyan/Package/GitHub/funback/web2py/gluon/dal.py", line 719, in create_table\n    self.create_sequence_and_triggers(query,table)\n  File "/Users/cyan/Package/GitHub/funback/web2py/gluon/dal.py", line 1954, in create_sequence_and_triggers\n    self.execute(query)\n  File "/Users/cyan/Package/GitHub/funback/web2py/gluon/dal.py", line 1392, in execute\n    return self.log_execute(*a, **b)\n  File "/Users/cyan/Package/GitHub/funback/web2py/gluon/dal.py", line 1386, in log_execute\n    ret = self.cursor.execute(*a, **b)\nProgrammingError: relation "user_login" already exists\n\n'
p3969
s.