(dp1
S'output'
p2
S"<type 'exceptions.AttributeError'> 'SQLFORM' object has no attribute 'email'"
p3
sS'layer'
p4
S'/Users/cyan/Package/GitHub/funback/web2py/applications/funback/controllers/account.py'
p5
sS'code'
p6
S'##########################\n### Account Controller ###\n##########################\n\n## Deal with all the following functionalities relating to accounts\n## 1. account creation/registration\n## 2. email confirmation\n## 3. rest password\n## 4. change password\n\n#===============================================================================\n# Use the Auth functions provided by Web2py\n# use @auth.requires_login()\n# @auth.requires_membership(\'group name\')\n# @auth.requires_permission(\'read\',\'table name\',record_id)\n# to decorate functions that need access control\n#===============================================================================\n\n\ndef register():\n    """\n    exposes:\n    http://..../[app]/account/register\n    """\n    \n    session.from_register = True\n    form = auth.register()\n    session.email = form.email\n       \n    return dict(form=form)\n\ndef verify_email():\n    """\n    exposes:\n    http://..../[app]/account/verify_email\n    """\n    return dict(form=auth.verify_email())\n\ndef login():\n    """\n    exposes:\n    http://..../[app]/account/login\n    """\n    return dict(form=auth.login())\n\ndef logout():\n    """\n    exposes:\n    http://..../[app]/account/logout\n    """\n    return dict(form=auth.logout())\n\ndef retrieve_password():\n    """\n    exposes:\n    http://..../[app]/account/retrieve_password\n    """\n    return dict(form=auth.retrieve_password())\n\ndef change_password():\n    """\n    exposes:\n    http://..../[app]/account/change_password\n    """\n    return dict(form=auth.change_password())\n\ndef profile():\n    """\n    exposes:\n    http://..../[app]/account/profile\n    """\n    return dict(form=auth.profile())\n\n\n#===============================================================================\n# def register():\n#    form = SQLFORM.factory(\n#        Field(\'email\', requires=[IS_NOT_EMPTY(), \n#                                IS_EMAIL(forced=\'^.*\\.edu(|\\..*)$\', error_message=\'email must be .edu address\')]),\n#        Field(\'password\', \'password\', requires=[IS_NOT_EMPTY(), \n#                                            IS_STRONG(min=7, special=0, upper=0, number=0, error_message=\'minimum 7 characters\'), \n#                                            CRYPT()]),\n#        Field(\'re_password\', \'password\', requires=[IS_EXPR(\'value==%s\' % repr(request.vars.get(\'password\', None)), error_message=\'Passwords do not match\'), \n#                                                CRYPT()]),\n#        submit_button=\'Sign up\')\n#    if form.process().accepted:\n#        session.email = form.vars.email\n#        session.pwd = form.vars.pwd\n#        redirect(URL(\'registered\'))\n#    return dict(form=form)\n#===============================================================================\n\ndef registered():\n    \n    logger.debug(\'from_register: %s and session.email: %s\' % (session.from_register, session.email))\n    \n    if session.from_register and not session.email:\n        redirect(URL(\'register\'))\n    else:\n        redirect(URL(c=\'default\', f=\'index\'))\n    \n    return dict()\nresponse._vars=response._caller(register)\n'
p7
sS'snapshot'
p8
(dp9
S'exception'
p10
(dp11
S'__hash__'
p12
S"<method-wrapper '__hash__' of exceptions.AttributeError object>"
p13
sS'__setattr__'
p14
S"<method-wrapper '__setattr__' of exceptions.AttributeError object>"
p15
sS'__reduce_ex__'
p16
S'<built-in method __reduce_ex__ of exceptions.AttributeError object>'
p17
sS'__getslice__'
p18
S"<method-wrapper '__getslice__' of exceptions.AttributeError object>"
p19
sS'__getitem__'
p20
S"<method-wrapper '__getitem__' of exceptions.AttributeError object>"
p21
sS'__setstate__'
p22
S'<built-in method __setstate__ of exceptions.AttributeError object>'
p23
sS'args'
p24
S'("\'SQLFORM\' object has no attribute \'email\'",)'
p25
sS'__reduce__'
p26
S'<built-in method __reduce__ of exceptions.AttributeError object>'
p27
sS'__str__'
p28
S"<method-wrapper '__str__' of exceptions.AttributeError object>"
p29
sS'__format__'
p30
S'<built-in method __format__ of exceptions.AttributeError object>'
p31
sS'__getattribute__'
p32
S"<method-wrapper '__getattribute__' of exceptions.AttributeError object>"
p33
sS'__class__'
p34
S"<type 'exceptions.AttributeError'>"
p35
sS'__unicode__'
p36
S'<built-in method __unicode__ of exceptions.AttributeError object>'
p37
sS'__delattr__'
p38
S"<method-wrapper '__delattr__' of exceptions.AttributeError object>"
p39
sS'__subclasshook__'
p40
S'<built-in method __subclasshook__ of type object>'
p41
sS'__repr__'
p42
S"<method-wrapper '__repr__' of exceptions.AttributeError object>"
p43
sS'__dict__'
p44
S'{}'
p45
sS'__sizeof__'
p46
S'<built-in method __sizeof__ of exceptions.AttributeError object>'
p47
sS'__doc__'
p48
S"'Attribute not found.'"
p49
sS'__init__'
p50
S"<method-wrapper '__init__' of exceptions.AttributeError object>"
p51
sS'__new__'
p52
S'<built-in method __new__ of type object>'
p53
ssS'evalue'
p54
S"'SQLFORM' object has no attribute 'email'"
p55
sS'request'
p56
ccopy_reg
_reconstructor
p57
(cgluon.html
BEAUTIFY
p58
c__builtin__
object
p59
NtRp60
(dp61
S'attributes'
p62
(dp63
sS'components'
p64
(lp65
g57
(cgluon.html
TABLE
p66
g59
NtRp67
(dp68
g62
(dp69
S'level'
p70
I5
ssS'parent'
p71
Nsg64
(lp72
g57
(cgluon.html
TR
p73
g59
NtRp74
(dp75
g62
(dp76
sg71
g67
sg64
(lp77
g57
(cgluon.html
TD
p78
g59
NtRp79
(dp80
g62
(dp81
S'_style'
p82
S'font-weight:bold;vertical-align:top'
p83
ssg71
g74
sg64
(lp84
S'ajax'
p85
asbag57
(g78
g59
NtRp86
(dp87
g62
(dp88
S'_valign'
p89
S'top'
p90
ssg71
g74
sg64
(lp91
S':'
asbag57
(g78
g59
NtRp92
(dp93
g62
(dp94
sg71
g74
sg64
(lp95
g57
(g58
g59
NtRp96
(dp97
g62
(dp98
g70
I5
ssg71
g92
sg64
(lp99
S'False'
p100
asbasbasbag57
(g73
g59
NtRp101
(dp102
g62
(dp103
sg71
g67
sg64
(lp104
g57
(g78
g59
NtRp105
(dp106
g62
(dp107
g82
g83
ssg71
g101
sg64
(lp108
S'application'
p109
asbag57
(g78
g59
NtRp110
(dp111
g62
(dp112
g89
g90
ssg71
g101
sg64
(lp113
S':'
asbag57
(g78
g59
NtRp114
(dp115
g62
(dp116
sg71
g101
sg64
(lp117
g57
(g58
g59
NtRp118
(dp119
g62
(dp120
g70
I5
ssg71
g114
sg64
(lp121
S'funback'
p122
asbasbasbag57
(g73
g59
NtRp123
(dp124
g62
(dp125
sg71
g67
sg64
(lp126
g57
(g78
g59
NtRp127
(dp128
g62
(dp129
g82
g83
ssg71
g123
sg64
(lp130
g24
asbag57
(g78
g59
NtRp131
(dp132
g62
(dp133
g89
g90
ssg71
g123
sg64
(lp134
S':'
asbag57
(g78
g59
NtRp135
(dp136
g62
(dp137
sg71
g123
sg64
(lp138
g57
(g58
g59
NtRp139
(dp140
g62
(dp141
g70
I5
ssg71
g135
sg64
(lp142
g57
(g66
g59
NtRp143
(dp144
g62
(dp145
g70
I4
ssg71
Nsg64
(lp146
sbasbasbasbag57
(g73
g59
NtRp147
(dp148
g62
(dp149
sg71
g67
sg64
(lp150
g57
(g78
g59
NtRp151
(dp152
g62
(dp153
g82
g83
ssg71
g147
sg64
(lp154
S'body'
p155
asbag57
(g78
g59
NtRp156
(dp157
g62
(dp158
g89
g90
ssg71
g147
sg64
(lp159
S':'
asbag57
(g78
g59
NtRp160
(dp161
g62
(dp162
sg71
g147
sg64
(lp163
g57
(g58
g59
NtRp164
(dp165
g62
(dp166
g70
I5
ssg71
g160
sg64
(lp167
S'<cStringIO.StringO object at 0x11b737960>'
p168
asbasbasbag57
(g73
g59
NtRp169
(dp170
g62
(dp171
sg71
g67
sg64
(lp172
g57
(g78
g59
NtRp173
(dp174
g62
(dp175
g82
g83
ssg71
g169
sg64
(lp176
S'client'
p177
asbag57
(g78
g59
NtRp178
(dp179
g62
(dp180
g89
g90
ssg71
g169
sg64
(lp181
S':'
asbag57
(g78
g59
NtRp182
(dp183
g62
(dp184
sg71
g169
sg64
(lp185
g57
(g58
g59
NtRp186
(dp187
g62
(dp188
g70
I5
ssg71
g182
sg64
(lp189
S'127.0.0.1'
p190
asbasbasbag57
(g73
g59
NtRp191
(dp192
g62
(dp193
sg71
g67
sg64
(lp194
g57
(g78
g59
NtRp195
(dp196
g62
(dp197
g82
g83
ssg71
g191
sg64
(lp198
S'controller'
p199
asbag57
(g78
g59
NtRp200
(dp201
g62
(dp202
g89
g90
ssg71
g191
sg64
(lp203
S':'
asbag57
(g78
g59
NtRp204
(dp205
g62
(dp206
sg71
g191
sg64
(lp207
g57
(g58
g59
NtRp208
(dp209
g62
(dp210
g70
I5
ssg71
g204
sg64
(lp211
S'account'
p212
asbasbasbag57
(g73
g59
NtRp213
(dp214
g62
(dp215
sg71
g67
sg64
(lp216
g57
(g78
g59
NtRp217
(dp218
g62
(dp219
g82
g83
ssg71
g213
sg64
(lp220
S'cookies'
p221
asbag57
(g78
g59
NtRp222
(dp223
g62
(dp224
g89
g90
ssg71
g213
sg64
(lp225
S':'
asbag57
(g78
g59
NtRp226
(dp227
g62
(dp228
sg71
g213
sg64
(lp229
g57
(g58
g59
NtRp230
(dp231
g62
(dp232
g70
I5
ssg71
g226
sg64
(lp233
g57
(g66
g59
NtRp234
(dp235
g62
(dp236
g70
I4
ssg71
Nsg64
(lp237
g57
(g73
g59
NtRp238
(dp239
g62
(dp240
sg71
g234
sg64
(lp241
g57
(g78
g59
NtRp242
(dp243
g62
(dp244
g82
g83
ssg71
g238
sg64
(lp245
S'session_id_admin'
p246
asbag57
(g78
g59
NtRp247
(dp248
g62
(dp249
g89
g90
ssg71
g238
sg64
(lp250
S':'
asbag57
(g78
g59
NtRp251
(dp252
g62
(dp253
sg71
g238
sg64
(lp254
g57
(g58
g59
NtRp255
(dp256
g62
(dp257
g70
I4
ssg71
g251
sg64
(lp258
g57
(g66
g59
NtRp259
(dp260
g62
(dp261
g70
I3
ssg71
Nsg64
(lp262
g57
(g73
g59
NtRp263
(dp264
g62
(dp265
sg71
g259
sg64
(lp266
g57
(g78
g59
NtRp267
(dp268
g62
(dp269
g82
g83
ssg71
g263
sg64
(lp270
S'comment'
p271
asbag57
(g78
g59
NtRp272
(dp273
g62
(dp274
g89
g90
ssg71
g263
sg64
(lp275
S':'
asbag57
(g78
g59
NtRp276
(dp277
g62
(dp278
sg71
g263
sg64
(lp279
g57
(g58
g59
NtRp280
(dp281
g62
(dp282
g70
I3
ssg71
g276
sg64
(lp283
S''
asbasbasbag57
(g73
g59
NtRp284
(dp285
g62
(dp286
sg71
g259
sg64
(lp287
g57
(g78
g59
NtRp288
(dp289
g62
(dp290
g82
g83
ssg71
g284
sg64
(lp291
S'domain'
p292
asbag57
(g78
g59
NtRp293
(dp294
g62
(dp295
g89
g90
ssg71
g284
sg64
(lp296
S':'
asbag57
(g78
g59
NtRp297
(dp298
g62
(dp299
sg71
g284
sg64
(lp300
g57
(g58
g59
NtRp301
(dp302
g62
(dp303
g70
I3
ssg71
g297
sg64
(lp304
S''
asbasbasbag57
(g73
g59
NtRp305
(dp306
g62
(dp307
sg71
g259
sg64
(lp308
g57
(g78
g59
NtRp309
(dp310
g62
(dp311
g82
g83
ssg71
g305
sg64
(lp312
S'expires'
p313
asbag57
(g78
g59
NtRp314
(dp315
g62
(dp316
g89
g90
ssg71
g305
sg64
(lp317
S':'
asbag57
(g78
g59
NtRp318
(dp319
g62
(dp320
sg71
g305
sg64
(lp321
g57
(g58
g59
NtRp322
(dp323
g62
(dp324
g70
I3
ssg71
g318
sg64
(lp325
S''
asbasbasbag57
(g73
g59
NtRp326
(dp327
g62
(dp328
sg71
g259
sg64
(lp329
g57
(g78
g59
NtRp330
(dp331
g62
(dp332
g82
g83
ssg71
g326
sg64
(lp333
S'httponly'
p334
asbag57
(g78
g59
NtRp335
(dp336
g62
(dp337
g89
g90
ssg71
g326
sg64
(lp338
S':'
asbag57
(g78
g59
NtRp339
(dp340
g62
(dp341
sg71
g326
sg64
(lp342
g57
(g58
g59
NtRp343
(dp344
g62
(dp345
g70
I3
ssg71
g339
sg64
(lp346
S''
asbasbasbag57
(g73
g59
NtRp347
(dp348
g62
(dp349
sg71
g259
sg64
(lp350
g57
(g78
g59
NtRp351
(dp352
g62
(dp353
g82
g83
ssg71
g347
sg64
(lp354
S'max-age'
p355
asbag57
(g78
g59
NtRp356
(dp357
g62
(dp358
g89
g90
ssg71
g347
sg64
(lp359
S':'
asbag57
(g78
g59
NtRp360
(dp361
g62
(dp362
sg71
g347
sg64
(lp363
g57
(g58
g59
NtRp364
(dp365
g62
(dp366
g70
I3
ssg71
g360
sg64
(lp367
S''
asbasbasbag57
(g73
g59
NtRp368
(dp369
g62
(dp370
sg71
g259
sg64
(lp371
g57
(g78
g59
NtRp372
(dp373
g62
(dp374
g82
g83
ssg71
g368
sg64
(lp375
S'path'
p376
asbag57
(g78
g59
NtRp377
(dp378
g62
(dp379
g89
g90
ssg71
g368
sg64
(lp380
S':'
asbag57
(g78
g59
NtRp381
(dp382
g62
(dp383
sg71
g368
sg64
(lp384
g57
(g58
g59
NtRp385
(dp386
g62
(dp387
g70
I3
ssg71
g381
sg64
(lp388
S''
asbasbasbag57
(g73
g59
NtRp389
(dp390
g62
(dp391
sg71
g259
sg64
(lp392
g57
(g78
g59
NtRp393
(dp394
g62
(dp395
g82
g83
ssg71
g389
sg64
(lp396
S'secure'
p397
asbag57
(g78
g59
NtRp398
(dp399
g62
(dp400
g89
g90
ssg71
g389
sg64
(lp401
S':'
asbag57
(g78
g59
NtRp402
(dp403
g62
(dp404
sg71
g389
sg64
(lp405
g57
(g58
g59
NtRp406
(dp407
g62
(dp408
g70
I3
ssg71
g402
sg64
(lp409
S''
asbasbasbag57
(g73
g59
NtRp410
(dp411
g62
(dp412
sg71
g259
sg64
(lp413
g57
(g78
g59
NtRp414
(dp415
g62
(dp416
g82
g83
ssg71
g410
sg64
(lp417
S'version'
p418
asbag57
(g78
g59
NtRp419
(dp420
g62
(dp421
g89
g90
ssg71
g410
sg64
(lp422
S':'
asbag57
(g78
g59
NtRp423
(dp424
g62
(dp425
sg71
g410
sg64
(lp426
g57
(g58
g59
NtRp427
(dp428
g62
(dp429
g70
I3
ssg71
g423
sg64
(lp430
S''
asbasbasbasbasbasbasbag57
(g73
g59
NtRp431
(dp432
g62
(dp433
sg71
g234
sg64
(lp434
g57
(g78
g59
NtRp435
(dp436
g62
(dp437
g82
g83
ssg71
g431
sg64
(lp438
S'session_id_funback'
p439
asbag57
(g78
g59
NtRp440
(dp441
g62
(dp442
g89
g90
ssg71
g431
sg64
(lp443
S':'
asbag57
(g78
g59
NtRp444
(dp445
g62
(dp446
sg71
g431
sg64
(lp447
g57
(g58
g59
NtRp448
(dp449
g62
(dp450
g70
I4
ssg71
g444
sg64
(lp451
g57
(g66
g59
NtRp452
(dp453
g62
(dp454
g70
I3
ssg71
Nsg64
(lp455
g57
(g73
g59
NtRp456
(dp457
g62
(dp458
sg71
g452
sg64
(lp459
g57
(g78
g59
NtRp460
(dp461
g62
(dp462
g82
g83
ssg71
g456
sg64
(lp463
g271
asbag57
(g78
g59
NtRp464
(dp465
g62
(dp466
g89
g90
ssg71
g456
sg64
(lp467
S':'
asbag57
(g78
g59
NtRp468
(dp469
g62
(dp470
sg71
g456
sg64
(lp471
g57
(g58
g59
NtRp472
(dp473
g62
(dp474
g70
I3
ssg71
g468
sg64
(lp475
S''
asbasbasbag57
(g73
g59
NtRp476
(dp477
g62
(dp478
sg71
g452
sg64
(lp479
g57
(g78
g59
NtRp480
(dp481
g62
(dp482
g82
g83
ssg71
g476
sg64
(lp483
g292
asbag57
(g78
g59
NtRp484
(dp485
g62
(dp486
g89
g90
ssg71
g476
sg64
(lp487
S':'
asbag57
(g78
g59
NtRp488
(dp489
g62
(dp490
sg71
g476
sg64
(lp491
g57
(g58
g59
NtRp492
(dp493
g62
(dp494
g70
I3
ssg71
g488
sg64
(lp495
S''
asbasbasbag57
(g73
g59
NtRp496
(dp497
g62
(dp498
sg71
g452
sg64
(lp499
g57
(g78
g59
NtRp500
(dp501
g62
(dp502
g82
g83
ssg71
g496
sg64
(lp503
g313
asbag57
(g78
g59
NtRp504
(dp505
g62
(dp506
g89
g90
ssg71
g496
sg64
(lp507
S':'
asbag57
(g78
g59
NtRp508
(dp509
g62
(dp510
sg71
g496
sg64
(lp511
g57
(g58
g59
NtRp512
(dp513
g62
(dp514
g70
I3
ssg71
g508
sg64
(lp515
S''
asbasbasbag57
(g73
g59
NtRp516
(dp517
g62
(dp518
sg71
g452
sg64
(lp519
g57
(g78
g59
NtRp520
(dp521
g62
(dp522
g82
g83
ssg71
g516
sg64
(lp523
g334
asbag57
(g78
g59
NtRp524
(dp525
g62
(dp526
g89
g90
ssg71
g516
sg64
(lp527
S':'
asbag57
(g78
g59
NtRp528
(dp529
g62
(dp530
sg71
g516
sg64
(lp531
g57
(g58
g59
NtRp532
(dp533
g62
(dp534
g70
I3
ssg71
g528
sg64
(lp535
S''
asbasbasbag57
(g73
g59
NtRp536
(dp537
g62
(dp538
sg71
g452
sg64
(lp539
g57
(g78
g59
NtRp540
(dp541
g62
(dp542
g82
g83
ssg71
g536
sg64
(lp543
g355
asbag57
(g78
g59
NtRp544
(dp545
g62
(dp546
g89
g90
ssg71
g536
sg64
(lp547
S':'
asbag57
(g78
g59
NtRp548
(dp549
g62
(dp550
sg71
g536
sg64
(lp551
g57
(g58
g59
NtRp552
(dp553
g62
(dp554
g70
I3
ssg71
g548
sg64
(lp555
S''
asbasbasbag57
(g73
g59
NtRp556
(dp557
g62
(dp558
sg71
g452
sg64
(lp559
g57
(g78
g59
NtRp560
(dp561
g62
(dp562
g82
g83
ssg71
g556
sg64
(lp563
g376
asbag57
(g78
g59
NtRp564
(dp565
g62
(dp566
g89
g90
ssg71
g556
sg64
(lp567
S':'
asbag57
(g78
g59
NtRp568
(dp569
g62
(dp570
sg71
g556
sg64
(lp571
g57
(g58
g59
NtRp572
(dp573
g62
(dp574
g70
I3
ssg71
g568
sg64
(lp575
S''
asbasbasbag57
(g73
g59
NtRp576
(dp577
g62
(dp578
sg71
g452
sg64
(lp579
g57
(g78
g59
NtRp580
(dp581
g62
(dp582
g82
g83
ssg71
g576
sg64
(lp583
g397
asbag57
(g78
g59
NtRp584
(dp585
g62
(dp586
g89
g90
ssg71
g576
sg64
(lp587
S':'
asbag57
(g78
g59
NtRp588
(dp589
g62
(dp590
sg71
g576
sg64
(lp591
g57
(g58
g59
NtRp592
(dp593
g62
(dp594
g70
I3
ssg71
g588
sg64
(lp595
S''
asbasbasbag57
(g73
g59
NtRp596
(dp597
g62
(dp598
sg71
g452
sg64
(lp599
g57
(g78
g59
NtRp600
(dp601
g62
(dp602
g82
g83
ssg71
g596
sg64
(lp603
g418
asbag57
(g78
g59
NtRp604
(dp605
g62
(dp606
g89
g90
ssg71
g596
sg64
(lp607
S':'
asbag57
(g78
g59
NtRp608
(dp609
g62
(dp610
sg71
g596
sg64
(lp611
g57
(g58
g59
NtRp612
(dp613
g62
(dp614
g70
I3
ssg71
g608
sg64
(lp615
S''
asbasbasbasbasbasbasbasbasbasbasbag57
(g73
g59
NtRp616
(dp617
g62
(dp618
sg71
g67
sg64
(lp619
g57
(g78
g59
NtRp620
(dp621
g62
(dp622
g82
g83
ssg71
g616
sg64
(lp623
S'env'
p624
asbag57
(g78
g59
NtRp625
(dp626
g62
(dp627
g89
g90
ssg71
g616
sg64
(lp628
S':'
asbag57
(g78
g59
NtRp629
(dp630
g62
(dp631
sg71
g616
sg64
(lp632
g57
(g58
g59
NtRp633
(dp634
g62
(dp635
g70
I5
ssg71
g629
sg64
(lp636
g57
(g66
g59
NtRp637
(dp638
g62
(dp639
g70
I4
ssg71
Nsg64
(lp640
g57
(g73
g59
NtRp641
(dp642
g62
(dp643
sg71
g637
sg64
(lp644
g57
(g78
g59
NtRp645
(dp646
g62
(dp647
g82
g83
ssg71
g641
sg64
(lp648
S'app_folders'
p649
asbag57
(g78
g59
NtRp650
(dp651
g62
(dp652
g89
g90
ssg71
g641
sg64
(lp653
S':'
asbag57
(g78
g59
NtRp654
(dp655
g62
(dp656
sg71
g641
sg64
(lp657
g57
(g58
g59
NtRp658
(dp659
g62
(dp660
g70
I4
ssg71
g654
sg64
(lp661
S"set(['/Users/cyan/Package/GitHub/funback/web2py/applications/welcome/', '/Users/cyan/Package/GitHub/funback/web2py/applications/admin/', '/Users/cyan/Package/GitHub/funback/web2py/applications/funback/'])"
p662
asbasbasbag57
(g73
g59
NtRp663
(dp664
g62
(dp665
sg71
g637
sg64
(lp666
g57
(g78
g59
NtRp667
(dp668
g62
(dp669
g82
g83
ssg71
g663
sg64
(lp670
S'applications_parent'
p671
asbag57
(g78
g59
NtRp672
(dp673
g62
(dp674
g89
g90
ssg71
g663
sg64
(lp675
S':'
asbag57
(g78
g59
NtRp676
(dp677
g62
(dp678
sg71
g663
sg64
(lp679
g57
(g58
g59
NtRp680
(dp681
g62
(dp682
g70
I4
ssg71
g676
sg64
(lp683
S'/Users/cyan/Package/GitHub/funback/web2py'
p684
asbasbasbag57
(g73
g59
NtRp685
(dp686
g62
(dp687
sg71
g637
sg64
(lp688
g57
(g78
g59
NtRp689
(dp690
g62
(dp691
g82
g83
ssg71
g685
sg64
(lp692
S'cmd_args'
p693
asbag57
(g78
g59
NtRp694
(dp695
g62
(dp696
g89
g90
ssg71
g685
sg64
(lp697
S':'
asbag57
(g78
g59
NtRp698
(dp699
g62
(dp700
sg71
g685
sg64
(lp701
g57
(g58
g59
NtRp702
(dp703
g62
(dp704
g70
I4
ssg71
g698
sg64
(lp705
g57
(g66
g59
NtRp706
(dp707
g62
(dp708
g70
I3
ssg71
Nsg64
(lp709
sbasbasbasbag57
(g73
g59
NtRp710
(dp711
g62
(dp712
sg71
g637
sg64
(lp713
g57
(g78
g59
NtRp714
(dp715
g62
(dp716
g82
g83
ssg71
g710
sg64
(lp717
S'cmd_options'
p718
asbag57
(g78
g59
NtRp719
(dp720
g62
(dp721
g89
g90
ssg71
g710
sg64
(lp722
S':'
asbag57
(g78
g59
NtRp723
(dp724
g62
(dp725
sg71
g710
sg64
(lp726
g57
(g58
g59
NtRp727
(dp728
g62
(dp729
g70
I4
ssg71
g723
sg64
(lp730
S"<Values at 0x101f8e758: {'verbose': False, 'ip': '127.0.0.1', 'shutdown_timeout': 5, 'taskbar': False, 'nocron': False, 'pid_filename': 'httpserver.pid', 'maxthreads': None, 'softcron': False, 'server_name': 'cyan-1.local', 'bpython': False, 'nogui': False, 'port': 8000, 'extcron': False, 'debuglevel': 30, 'test': None, 'folder': '/Users/cyan/Package/GitHub/funback/web2py', 'config': '', 'import_models': False, 'winservice': '', 'shell': None, 'run': '', 'log_filename': 'httpserver.log', 'args': [''], 'socket_timeout': 5, 'ssl_ca_certificate': None, 'scheduler': None, 'profiler_filename': None, 'ssl_private_key': '', 'password': '<ask>', 'request_queue_size': 5, 'ssl_certificate': '', 'cronjob': False, 'numthreads': None, 'quiet': False, 'interfaces': None, 'minthreads': None, 'timeout': 10, 'plain': False, 'nobanner': False}>"
p731
asbasbasbag57
(g73
g59
NtRp732
(dp733
g62
(dp734
sg71
g637
sg64
(lp735
g57
(g78
g59
NtRp736
(dp737
g62
(dp738
g82
g83
ssg71
g732
sg64
(lp739
S'db_sessions'
p740
asbag57
(g78
g59
NtRp741
(dp742
g62
(dp743
g89
g90
ssg71
g732
sg64
(lp744
S':'
asbag57
(g78
g59
NtRp745
(dp746
g62
(dp747
sg71
g732
sg64
(lp748
g57
(g58
g59
NtRp749
(dp750
g62
(dp751
g70
I4
ssg71
g745
sg64
(lp752
S'set([])'
p753
asbasbasbag57
(g73
g59
NtRp754
(dp755
g62
(dp756
sg71
g637
sg64
(lp757
g57
(g78
g59
NtRp758
(dp759
g62
(dp760
g82
g83
ssg71
g754
sg64
(lp761
S'debugging'
p762
asbag57
(g78
g59
NtRp763
(dp764
g62
(dp765
g89
g90
ssg71
g754
sg64
(lp766
S':'
asbag57
(g78
g59
NtRp767
(dp768
g62
(dp769
sg71
g754
sg64
(lp770
g57
(g58
g59
NtRp771
(dp772
g62
(dp773
g70
I4
ssg71
g767
sg64
(lp774
g100
asbasbasbag57
(g73
g59
NtRp775
(dp776
g62
(dp777
sg71
g637
sg64
(lp778
g57
(g78
g59
NtRp779
(dp780
g62
(dp781
g82
g83
ssg71
g775
sg64
(lp782
S'gluon_parent'
p783
asbag57
(g78
g59
NtRp784
(dp785
g62
(dp786
g89
g90
ssg71
g775
sg64
(lp787
S':'
asbag57
(g78
g59
NtRp788
(dp789
g62
(dp790
sg71
g775
sg64
(lp791
g57
(g58
g59
NtRp792
(dp793
g62
(dp794
g70
I4
ssg71
g788
sg64
(lp795
S'/Users/cyan/Package/GitHub/funback/web2py'
p796
asbasbasbag57
(g73
g59
NtRp797
(dp798
g62
(dp799
sg71
g637
sg64
(lp800
g57
(g78
g59
NtRp801
(dp802
g62
(dp803
g82
g83
ssg71
g797
sg64
(lp804
S'http_accept'
p805
asbag57
(g78
g59
NtRp806
(dp807
g62
(dp808
g89
g90
ssg71
g797
sg64
(lp809
S':'
asbag57
(g78
g59
NtRp810
(dp811
g62
(dp812
sg71
g797
sg64
(lp813
g57
(g58
g59
NtRp814
(dp815
g62
(dp816
g70
I4
ssg71
g810
sg64
(lp817
S'text/html,application/xhtml+xml,application/xml;q=0.9,*/*;q=0.8'
p818
asbasbasbag57
(g73
g59
NtRp819
(dp820
g62
(dp821
sg71
g637
sg64
(lp822
g57
(g78
g59
NtRp823
(dp824
g62
(dp825
g82
g83
ssg71
g819
sg64
(lp826
S'http_accept_encoding'
p827
asbag57
(g78
g59
NtRp828
(dp829
g62
(dp830
g89
g90
ssg71
g819
sg64
(lp831
S':'
asbag57
(g78
g59
NtRp832
(dp833
g62
(dp834
sg71
g819
sg64
(lp835
g57
(g58
g59
NtRp836
(dp837
g62
(dp838
g70
I4
ssg71
g832
sg64
(lp839
S'gzip, deflate'
p840
asbasbasbag57
(g73
g59
NtRp841
(dp842
g62
(dp843
sg71
g637
sg64
(lp844
g57
(g78
g59
NtRp845
(dp846
g62
(dp847
g82
g83
ssg71
g841
sg64
(lp848
S'http_accept_language'
p849
asbag57
(g78
g59
NtRp850
(dp851
g62
(dp852
g89
g90
ssg71
g841
sg64
(lp853
S':'
asbag57
(g78
g59
NtRp854
(dp855
g62
(dp856
sg71
g841
sg64
(lp857
g57
(g58
g59
NtRp858
(dp859
g62
(dp860
g70
I4
ssg71
g854
sg64
(lp861
S'en-us'
p862
asbasbasbag57
(g73
g59
NtRp863
(dp864
g62
(dp865
sg71
g637
sg64
(lp866
g57
(g78
g59
NtRp867
(dp868
g62
(dp869
g82
g83
ssg71
g863
sg64
(lp870
S'http_connection'
p871
asbag57
(g78
g59
NtRp872
(dp873
g62
(dp874
g89
g90
ssg71
g863
sg64
(lp875
S':'
asbag57
(g78
g59
NtRp876
(dp877
g62
(dp878
sg71
g863
sg64
(lp879
g57
(g58
g59
NtRp880
(dp881
g62
(dp882
g70
I4
ssg71
g876
sg64
(lp883
S'keep-alive'
p884
asbasbasbag57
(g73
g59
NtRp885
(dp886
g62
(dp887
sg71
g637
sg64
(lp888
g57
(g78
g59
NtRp889
(dp890
g62
(dp891
g82
g83
ssg71
g885
sg64
(lp892
S'http_cookie'
p893
asbag57
(g78
g59
NtRp894
(dp895
g62
(dp896
g89
g90
ssg71
g885
sg64
(lp897
S':'
asbag57
(g78
g59
NtRp898
(dp899
g62
(dp900
sg71
g885
sg64
(lp901
g57
(g58
g59
NtRp902
(dp903
g62
(dp904
g70
I4
ssg71
g898
sg64
(lp905
S'session_id_funback=127.0.0.1-70ff08d7-20f5-43ab-a7ac-c4b9a26e19e2; session_id_admin=127.0.0.1-f201cb88-e9d2-42ad-a9c0-d4d853365023'
p906
asbasbasbag57
(g73
g59
NtRp907
(dp908
g62
(dp909
sg71
g637
sg64
(lp910
g57
(g78
g59
NtRp911
(dp912
g62
(dp913
g82
g83
ssg71
g907
sg64
(lp914
S'http_host'
p915
asbag57
(g78
g59
NtRp916
(dp917
g62
(dp918
g89
g90
ssg71
g907
sg64
(lp919
S':'
asbag57
(g78
g59
NtRp920
(dp921
g62
(dp922
sg71
g907
sg64
(lp923
g57
(g58
g59
NtRp924
(dp925
g62
(dp926
g70
I4
ssg71
g920
sg64
(lp927
S'127.0.0.1:8000'
p928
asbasbasbag57
(g73
g59
NtRp929
(dp930
g62
(dp931
sg71
g637
sg64
(lp932
g57
(g78
g59
NtRp933
(dp934
g62
(dp935
g82
g83
ssg71
g929
sg64
(lp936
S'http_user_agent'
p937
asbag57
(g78
g59
NtRp938
(dp939
g62
(dp940
g89
g90
ssg71
g929
sg64
(lp941
S':'
asbag57
(g78
g59
NtRp942
(dp943
g62
(dp944
sg71
g929
sg64
(lp945
g57
(g58
g59
NtRp946
(dp947
g62
(dp948
g70
I4
ssg71
g942
sg64
(lp949
S'Mozilla/5.0 (Macintosh; Intel Mac OS X 10_6_8) AppleWebKit/534.55.3 (KHTML, like Gecko) Version/5.1.5 Safari/534.55.3'
p950
asbasbasbag57
(g73
g59
NtRp951
(dp952
g62
(dp953
sg71
g637
sg64
(lp954
g57
(g78
g59
NtRp955
(dp956
g62
(dp957
g82
g83
ssg71
g951
sg64
(lp958
S'is_jython'
p959
asbag57
(g78
g59
NtRp960
(dp961
g62
(dp962
g89
g90
ssg71
g951
sg64
(lp963
S':'
asbag57
(g78
g59
NtRp964
(dp965
g62
(dp966
sg71
g951
sg64
(lp967
g57
(g58
g59
NtRp968
(dp969
g62
(dp970
g70
I4
ssg71
g964
sg64
(lp971
g100
asbasbasbag57
(g73
g59
NtRp972
(dp973
g62
(dp974
sg71
g637
sg64
(lp975
g57
(g78
g59
NtRp976
(dp977
g62
(dp978
g82
g83
ssg71
g972
sg64
(lp979
S'is_pypy'
p980
asbag57
(g78
g59
NtRp981
(dp982
g62
(dp983
g89
g90
ssg71
g972
sg64
(lp984
S':'
asbag57
(g78
g59
NtRp985
(dp986
g62
(dp987
sg71
g972
sg64
(lp988
g57
(g58
g59
NtRp989
(dp990
g62
(dp991
g70
I4
ssg71
g985
sg64
(lp992
g100
asbasbasbag57
(g73
g59
NtRp993
(dp994
g62
(dp995
sg71
g637
sg64
(lp996
g57
(g78
g59
NtRp997
(dp998
g62
(dp999
g82
g83
ssg71
g993
sg64
(lp1000
S'path_info'
p1001
asbag57
(g78
g59
NtRp1002
(dp1003
g62
(dp1004
g89
g90
ssg71
g993
sg64
(lp1005
S':'
asbag57
(g78
g59
NtRp1006
(dp1007
g62
(dp1008
sg71
g993
sg64
(lp1009
g57
(g58
g59
NtRp1010
(dp1011
g62
(dp1012
g70
I4
ssg71
g1006
sg64
(lp1013
S'/funback/account/register'
p1014
asbasbasbag57
(g73
g59
NtRp1015
(dp1016
g62
(dp1017
sg71
g637
sg64
(lp1018
g57
(g78
g59
NtRp1019
(dp1020
g62
(dp1021
g82
g83
ssg71
g1015
sg64
(lp1022
S'query_string'
p1023
asbag57
(g78
g59
NtRp1024
(dp1025
g62
(dp1026
g89
g90
ssg71
g1015
sg64
(lp1027
S':'
asbag57
(g78
g59
NtRp1028
(dp1029
g62
(dp1030
sg71
g1015
sg64
(lp1031
g57
(g58
g59
NtRp1032
(dp1033
g62
(dp1034
g70
I4
ssg71
g1028
sg64
(lp1035
S''
asbasbasbag57
(g73
g59
NtRp1036
(dp1037
g62
(dp1038
sg71
g637
sg64
(lp1039
g57
(g78
g59
NtRp1040
(dp1041
g62
(dp1042
g82
g83
ssg71
g1036
sg64
(lp1043
S'remote_addr'
p1044
asbag57
(g78
g59
NtRp1045
(dp1046
g62
(dp1047
g89
g90
ssg71
g1036
sg64
(lp1048
S':'
asbag57
(g78
g59
NtRp1049
(dp1050
g62
(dp1051
sg71
g1036
sg64
(lp1052
g57
(g58
g59
NtRp1053
(dp1054
g62
(dp1055
g70
I4
ssg71
g1049
sg64
(lp1056
g190
asbasbasbag57
(g73
g59
NtRp1057
(dp1058
g62
(dp1059
sg71
g637
sg64
(lp1060
g57
(g78
g59
NtRp1061
(dp1062
g62
(dp1063
g82
g83
ssg71
g1057
sg64
(lp1064
S'remote_port'
p1065
asbag57
(g78
g59
NtRp1066
(dp1067
g62
(dp1068
g89
g90
ssg71
g1057
sg64
(lp1069
S':'
asbag57
(g78
g59
NtRp1070
(dp1071
g62
(dp1072
sg71
g1057
sg64
(lp1073
g57
(g58
g59
NtRp1074
(dp1075
g62
(dp1076
g70
I4
ssg71
g1070
sg64
(lp1077
S'57569'
p1078
asbasbasbag57
(g73
g59
NtRp1079
(dp1080
g62
(dp1081
sg71
g637
sg64
(lp1082
g57
(g78
g59
NtRp1083
(dp1084
g62
(dp1085
g82
g83
ssg71
g1079
sg64
(lp1086
S'request_method'
p1087
asbag57
(g78
g59
NtRp1088
(dp1089
g62
(dp1090
g89
g90
ssg71
g1079
sg64
(lp1091
S':'
asbag57
(g78
g59
NtRp1092
(dp1093
g62
(dp1094
sg71
g1079
sg64
(lp1095
g57
(g58
g59
NtRp1096
(dp1097
g62
(dp1098
g70
I4
ssg71
g1092
sg64
(lp1099
S'GET'
p1100
asbasbasbag57
(g73
g59
NtRp1101
(dp1102
g62
(dp1103
sg71
g637
sg64
(lp1104
g57
(g78
g59
NtRp1105
(dp1106
g62
(dp1107
g82
g83
ssg71
g1101
sg64
(lp1108
S'script_name'
p1109
asbag57
(g78
g59
NtRp1110
(dp1111
g62
(dp1112
g89
g90
ssg71
g1101
sg64
(lp1113
S':'
asbag57
(g78
g59
NtRp1114
(dp1115
g62
(dp1116
sg71
g1101
sg64
(lp1117
g57
(g58
g59
NtRp1118
(dp1119
g62
(dp1120
g70
I4
ssg71
g1114
sg64
(lp1121
S''
asbasbasbag57
(g73
g59
NtRp1122
(dp1123
g62
(dp1124
sg71
g637
sg64
(lp1125
g57
(g78
g59
NtRp1126
(dp1127
g62
(dp1128
g82
g83
ssg71
g1122
sg64
(lp1129
S'server_name'
p1130
asbag57
(g78
g59
NtRp1131
(dp1132
g62
(dp1133
g89
g90
ssg71
g1122
sg64
(lp1134
S':'
asbag57
(g78
g59
NtRp1135
(dp1136
g62
(dp1137
sg71
g1122
sg64
(lp1138
g57
(g58
g59
NtRp1139
(dp1140
g62
(dp1141
g70
I4
ssg71
g1135
sg64
(lp1142
S'cyan-1.local'
p1143
asbasbasbag57
(g73
g59
NtRp1144
(dp1145
g62
(dp1146
sg71
g637
sg64
(lp1147
g57
(g78
g59
NtRp1148
(dp1149
g62
(dp1150
g82
g83
ssg71
g1144
sg64
(lp1151
S'server_port'
p1152
asbag57
(g78
g59
NtRp1153
(dp1154
g62
(dp1155
g89
g90
ssg71
g1144
sg64
(lp1156
S':'
asbag57
(g78
g59
NtRp1157
(dp1158
g62
(dp1159
sg71
g1144
sg64
(lp1160
g57
(g58
g59
NtRp1161
(dp1162
g62
(dp1163
g70
I4
ssg71
g1157
sg64
(lp1164
S'8000'
p1165
asbasbasbag57
(g73
g59
NtRp1166
(dp1167
g62
(dp1168
sg71
g637
sg64
(lp1169
g57
(g78
g59
NtRp1170
(dp1171
g62
(dp1172
g82
g83
ssg71
g1166
sg64
(lp1173
S'server_protocol'
p1174
asbag57
(g78
g59
NtRp1175
(dp1176
g62
(dp1177
g89
g90
ssg71
g1166
sg64
(lp1178
S':'
asbag57
(g78
g59
NtRp1179
(dp1180
g62
(dp1181
sg71
g1166
sg64
(lp1182
g57
(g58
g59
NtRp1183
(dp1184
g62
(dp1185
g70
I4
ssg71
g1179
sg64
(lp1186
S'HTTP/1.1'
p1187
asbasbasbag57
(g73
g59
NtRp1188
(dp1189
g62
(dp1190
sg71
g637
sg64
(lp1191
g57
(g78
g59
NtRp1192
(dp1193
g62
(dp1194
g82
g83
ssg71
g1188
sg64
(lp1195
S'server_software'
p1196
asbag57
(g78
g59
NtRp1197
(dp1198
g62
(dp1199
g89
g90
ssg71
g1188
sg64
(lp1200
S':'
asbag57
(g78
g59
NtRp1201
(dp1202
g62
(dp1203
sg71
g1188
sg64
(lp1204
g57
(g58
g59
NtRp1205
(dp1206
g62
(dp1207
g70
I4
ssg71
g1201
sg64
(lp1208
S'Rocket 1.2.4'
p1209
asbasbasbag57
(g73
g59
NtRp1210
(dp1211
g62
(dp1212
sg71
g637
sg64
(lp1213
g57
(g78
g59
NtRp1214
(dp1215
g62
(dp1216
g82
g83
ssg71
g1210
sg64
(lp1217
S'web2py_crontype'
p1218
asbag57
(g78
g59
NtRp1219
(dp1220
g62
(dp1221
g89
g90
ssg71
g1210
sg64
(lp1222
S':'
asbag57
(g78
g59
NtRp1223
(dp1224
g62
(dp1225
sg71
g1210
sg64
(lp1226
g57
(g58
g59
NtRp1227
(dp1228
g62
(dp1229
g70
I4
ssg71
g1223
sg64
(lp1230
S'hard'
p1231
asbasbasbag57
(g73
g59
NtRp1232
(dp1233
g62
(dp1234
sg71
g637
sg64
(lp1235
g57
(g78
g59
NtRp1236
(dp1237
g62
(dp1238
g82
g83
ssg71
g1232
sg64
(lp1239
S'web2py_path'
p1240
asbag57
(g78
g59
NtRp1241
(dp1242
g62
(dp1243
g89
g90
ssg71
g1232
sg64
(lp1244
S':'
asbag57
(g78
g59
NtRp1245
(dp1246
g62
(dp1247
sg71
g1232
sg64
(lp1248
g57
(g58
g59
NtRp1249
(dp1250
g62
(dp1251
g70
I4
ssg71
g1245
sg64
(lp1252
g684
asbasbasbag57
(g73
g59
NtRp1253
(dp1254
g62
(dp1255
sg71
g637
sg64
(lp1256
g57
(g78
g59
NtRp1257
(dp1258
g62
(dp1259
g82
g83
ssg71
g1253
sg64
(lp1260
S'web2py_version'
p1261
asbag57
(g78
g59
NtRp1262
(dp1263
g62
(dp1264
g89
g90
ssg71
g1253
sg64
(lp1265
S':'
asbag57
(g78
g59
NtRp1266
(dp1267
g62
(dp1268
sg71
g1253
sg64
(lp1269
g57
(g58
g59
NtRp1270
(dp1271
g62
(dp1272
g70
I4
ssg71
g1266
sg64
(lp1273
g57
(g66
g59
NtRp1274
(dp1275
g62
(dp1276
g70
I3
ssg71
Nsg64
(lp1277
g57
(g73
g59
NtRp1278
(dp1279
g62
(dp1280
sg71
g1274
sg64
(lp1281
g57
(g78
g59
NtRp1282
(dp1283
g62
(dp1284
sg71
g1278
sg64
(lp1285
g57
(g58
g59
NtRp1286
(dp1287
g62
(dp1288
g70
I3
ssg71
g1282
sg64
(lp1289
S'1'
asbasbasbag57
(g73
g59
NtRp1290
(dp1291
g62
(dp1292
sg71
g1274
sg64
(lp1293
g57
(g78
g59
NtRp1294
(dp1295
g62
(dp1296
sg71
g1290
sg64
(lp1297
g57
(g58
g59
NtRp1298
(dp1299
g62
(dp1300
g70
I3
ssg71
g1294
sg64
(lp1301
S'99'
p1302
asbasbasbag57
(g73
g59
NtRp1303
(dp1304
g62
(dp1305
sg71
g1274
sg64
(lp1306
g57
(g78
g59
NtRp1307
(dp1308
g62
(dp1309
sg71
g1303
sg64
(lp1310
g57
(g58
g59
NtRp1311
(dp1312
g62
(dp1313
g70
I3
ssg71
g1307
sg64
(lp1314
S'7'
asbasbasbag57
(g73
g59
NtRp1315
(dp1316
g62
(dp1317
sg71
g1274
sg64
(lp1318
g57
(g78
g59
NtRp1319
(dp1320
g62
(dp1321
sg71
g1315
sg64
(lp1322
g57
(g58
g59
NtRp1323
(dp1324
g62
(dp1325
g70
I3
ssg71
g1319
sg64
(lp1326
S'datetime.datetime(2012, 3, 4, 22, 12, 8)'
p1327
asbasbasbag57
(g73
g59
NtRp1328
(dp1329
g62
(dp1330
sg71
g1274
sg64
(lp1331
g57
(g78
g59
NtRp1332
(dp1333
g62
(dp1334
sg71
g1328
sg64
(lp1335
g57
(g58
g59
NtRp1336
(dp1337
g62
(dp1338
g70
I3
ssg71
g1332
sg64
(lp1339
S'stable'
p1340
asbasbasbasbasbasbasbag57
(g73
g59
NtRp1341
(dp1342
g62
(dp1343
sg71
g637
sg64
(lp1344
g57
(g78
g59
NtRp1345
(dp1346
g62
(dp1347
g82
g83
ssg71
g1341
sg64
(lp1348
S'wsgi_errors'
p1349
asbag57
(g78
g59
NtRp1350
(dp1351
g62
(dp1352
g89
g90
ssg71
g1341
sg64
(lp1353
S':'
asbag57
(g78
g59
NtRp1354
(dp1355
g62
(dp1356
sg71
g1341
sg64
(lp1357
g57
(g58
g59
NtRp1358
(dp1359
g62
(dp1360
g70
I4
ssg71
g1354
sg64
(lp1361
S"<open file '<stderr>', mode 'w' at 0x100283270>"
p1362
asbasbasbag57
(g73
g59
NtRp1363
(dp1364
g62
(dp1365
sg71
g637
sg64
(lp1366
g57
(g78
g59
NtRp1367
(dp1368
g62
(dp1369
g82
g83
ssg71
g1363
sg64
(lp1370
S'wsgi_file_wrapper'
p1371
asbag57
(g78
g59
NtRp1372
(dp1373
g62
(dp1374
g89
g90
ssg71
g1363
sg64
(lp1375
S':'
asbag57
(g78
g59
NtRp1376
(dp1377
g62
(dp1378
sg71
g1363
sg64
(lp1379
g57
(g58
g59
NtRp1380
(dp1381
g62
(dp1382
g70
I4
ssg71
g1376
sg64
(lp1383
S'<class wsgiref.util.FileWrapper at 0x101b632c0>'
p1384
asbasbasbag57
(g73
g59
NtRp1385
(dp1386
g62
(dp1387
sg71
g637
sg64
(lp1388
g57
(g78
g59
NtRp1389
(dp1390
g62
(dp1391
g82
g83
ssg71
g1385
sg64
(lp1392
S'wsgi_input'
p1393
asbag57
(g78
g59
NtRp1394
(dp1395
g62
(dp1396
g89
g90
ssg71
g1385
sg64
(lp1397
S':'
asbag57
(g78
g59
NtRp1398
(dp1399
g62
(dp1400
sg71
g1385
sg64
(lp1401
g57
(g58
g59
NtRp1402
(dp1403
g62
(dp1404
g70
I4
ssg71
g1398
sg64
(lp1405
S'<socket._fileobject object at 0x116da6ed0>'
p1406
asbasbasbag57
(g73
g59
NtRp1407
(dp1408
g62
(dp1409
sg71
g637
sg64
(lp1410
g57
(g78
g59
NtRp1411
(dp1412
g62
(dp1413
g82
g83
ssg71
g1407
sg64
(lp1414
S'wsgi_multiprocess'
p1415
asbag57
(g78
g59
NtRp1416
(dp1417
g62
(dp1418
g89
g90
ssg71
g1407
sg64
(lp1419
S':'
asbag57
(g78
g59
NtRp1420
(dp1421
g62
(dp1422
sg71
g1407
sg64
(lp1423
g57
(g58
g59
NtRp1424
(dp1425
g62
(dp1426
g70
I4
ssg71
g1420
sg64
(lp1427
g100
asbasbasbag57
(g73
g59
NtRp1428
(dp1429
g62
(dp1430
sg71
g637
sg64
(lp1431
g57
(g78
g59
NtRp1432
(dp1433
g62
(dp1434
g82
g83
ssg71
g1428
sg64
(lp1435
S'wsgi_multithread'
p1436
asbag57
(g78
g59
NtRp1437
(dp1438
g62
(dp1439
g89
g90
ssg71
g1428
sg64
(lp1440
S':'
asbag57
(g78
g59
NtRp1441
(dp1442
g62
(dp1443
sg71
g1428
sg64
(lp1444
g57
(g58
g59
NtRp1445
(dp1446
g62
(dp1447
g70
I4
ssg71
g1441
sg64
(lp1448
S'True'
p1449
asbasbasbag57
(g73
g59
NtRp1450
(dp1451
g62
(dp1452
sg71
g637
sg64
(lp1453
g57
(g78
g59
NtRp1454
(dp1455
g62
(dp1456
g82
g83
ssg71
g1450
sg64
(lp1457
S'wsgi_run_once'
p1458
asbag57
(g78
g59
NtRp1459
(dp1460
g62
(dp1461
g89
g90
ssg71
g1450
sg64
(lp1462
S':'
asbag57
(g78
g59
NtRp1463
(dp1464
g62
(dp1465
sg71
g1450
sg64
(lp1466
g57
(g58
g59
NtRp1467
(dp1468
g62
(dp1469
g70
I4
ssg71
g1463
sg64
(lp1470
g100
asbasbasbag57
(g73
g59
NtRp1471
(dp1472
g62
(dp1473
sg71
g637
sg64
(lp1474
g57
(g78
g59
NtRp1475
(dp1476
g62
(dp1477
g82
g83
ssg71
g1471
sg64
(lp1478
S'wsgi_url_scheme'
p1479
asbag57
(g78
g59
NtRp1480
(dp1481
g62
(dp1482
g89
g90
ssg71
g1471
sg64
(lp1483
S':'
asbag57
(g78
g59
NtRp1484
(dp1485
g62
(dp1486
sg71
g1471
sg64
(lp1487
g57
(g58
g59
NtRp1488
(dp1489
g62
(dp1490
g70
I4
ssg71
g1484
sg64
(lp1491
S'http'
p1492
asbasbasbag57
(g73
g59
NtRp1493
(dp1494
g62
(dp1495
sg71
g637
sg64
(lp1496
g57
(g78
g59
NtRp1497
(dp1498
g62
(dp1499
g82
g83
ssg71
g1493
sg64
(lp1500
S'wsgi_version'
p1501
asbag57
(g78
g59
NtRp1502
(dp1503
g62
(dp1504
g89
g90
ssg71
g1493
sg64
(lp1505
S':'
asbag57
(g78
g59
NtRp1506
(dp1507
g62
(dp1508
sg71
g1493
sg64
(lp1509
g57
(g58
g59
NtRp1510
(dp1511
g62
(dp1512
g70
I4
ssg71
g1506
sg64
(lp1513
g57
(g66
g59
NtRp1514
(dp1515
g62
(dp1516
g70
I3
ssg71
Nsg64
(lp1517
g57
(g73
g59
NtRp1518
(dp1519
g62
(dp1520
sg71
g1514
sg64
(lp1521
g57
(g78
g59
NtRp1522
(dp1523
g62
(dp1524
sg71
g1518
sg64
(lp1525
g57
(g58
g59
NtRp1526
(dp1527
g62
(dp1528
g70
I3
ssg71
g1522
sg64
(lp1529
S'1'
asbasbasbag57
(g73
g59
NtRp1530
(dp1531
g62
(dp1532
sg71
g1514
sg64
(lp1533
g57
(g78
g59
NtRp1534
(dp1535
g62
(dp1536
sg71
g1530
sg64
(lp1537
g57
(g58
g59
NtRp1538
(dp1539
g62
(dp1540
g70
I3
ssg71
g1534
sg64
(lp1541
S'0'
asbasbasbasbasbasbasbasbasbasbasbag57
(g73
g59
NtRp1542
(dp1543
g62
(dp1544
sg71
g67
sg64
(lp1545
g57
(g78
g59
NtRp1546
(dp1547
g62
(dp1548
g82
g83
ssg71
g1542
sg64
(lp1549
S'extension'
p1550
asbag57
(g78
g59
NtRp1551
(dp1552
g62
(dp1553
g89
g90
ssg71
g1542
sg64
(lp1554
S':'
asbag57
(g78
g59
NtRp1555
(dp1556
g62
(dp1557
sg71
g1542
sg64
(lp1558
g57
(g58
g59
NtRp1559
(dp1560
g62
(dp1561
g70
I5
ssg71
g1555
sg64
(lp1562
S'html'
p1563
asbasbasbag57
(g73
g59
NtRp1564
(dp1565
g62
(dp1566
sg71
g67
sg64
(lp1567
g57
(g78
g59
NtRp1568
(dp1569
g62
(dp1570
g82
g83
ssg71
g1564
sg64
(lp1571
S'folder'
p1572
asbag57
(g78
g59
NtRp1573
(dp1574
g62
(dp1575
g89
g90
ssg71
g1564
sg64
(lp1576
S':'
asbag57
(g78
g59
NtRp1577
(dp1578
g62
(dp1579
sg71
g1564
sg64
(lp1580
g57
(g58
g59
NtRp1581
(dp1582
g62
(dp1583
g70
I5
ssg71
g1577
sg64
(lp1584
S'/Users/cyan/Package/GitHub/funback/web2py/applications/funback/'
p1585
asbasbasbag57
(g73
g59
NtRp1586
(dp1587
g62
(dp1588
sg71
g67
sg64
(lp1589
g57
(g78
g59
NtRp1590
(dp1591
g62
(dp1592
g82
g83
ssg71
g1586
sg64
(lp1593
S'function'
p1594
asbag57
(g78
g59
NtRp1595
(dp1596
g62
(dp1597
g89
g90
ssg71
g1586
sg64
(lp1598
S':'
asbag57
(g78
g59
NtRp1599
(dp1600
g62
(dp1601
sg71
g1586
sg64
(lp1602
g57
(g58
g59
NtRp1603
(dp1604
g62
(dp1605
g70
I5
ssg71
g1599
sg64
(lp1606
S'register'
p1607
asbasbasbag57
(g73
g59
NtRp1608
(dp1609
g62
(dp1610
sg71
g67
sg64
(lp1611
g57
(g78
g59
NtRp1612
(dp1613
g62
(dp1614
g82
g83
ssg71
g1608
sg64
(lp1615
S'get_vars'
p1616
asbag57
(g78
g59
NtRp1617
(dp1618
g62
(dp1619
g89
g90
ssg71
g1608
sg64
(lp1620
S':'
asbag57
(g78
g59
NtRp1621
(dp1622
g62
(dp1623
sg71
g1608
sg64
(lp1624
g57
(g58
g59
NtRp1625
(dp1626
g62
(dp1627
g70
I5
ssg71
g1621
sg64
(lp1628
g57
(g66
g59
NtRp1629
(dp1630
g62
(dp1631
g70
I4
ssg71
Nsg64
(lp1632
sbasbasbasbag57
(g73
g59
NtRp1633
(dp1634
g62
(dp1635
sg71
g67
sg64
(lp1636
g57
(g78
g59
NtRp1637
(dp1638
g62
(dp1639
g82
g83
ssg71
g1633
sg64
(lp1640
S'global_settings'
p1641
asbag57
(g78
g59
NtRp1642
(dp1643
g62
(dp1644
g89
g90
ssg71
g1633
sg64
(lp1645
S':'
asbag57
(g78
g59
NtRp1646
(dp1647
g62
(dp1648
sg71
g1633
sg64
(lp1649
g57
(g58
g59
NtRp1650
(dp1651
g62
(dp1652
g70
I5
ssg71
g1646
sg64
(lp1653
g57
(g66
g59
NtRp1654
(dp1655
g62
(dp1656
g70
I4
ssg71
Nsg64
(lp1657
g57
(g73
g59
NtRp1658
(dp1659
g62
(dp1660
sg71
g1654
sg64
(lp1661
g57
(g78
g59
NtRp1662
(dp1663
g62
(dp1664
g82
g83
ssg71
g1658
sg64
(lp1665
g649
asbag57
(g78
g59
NtRp1666
(dp1667
g62
(dp1668
g89
g90
ssg71
g1658
sg64
(lp1669
S':'
asbag57
(g78
g59
NtRp1670
(dp1671
g62
(dp1672
sg71
g1658
sg64
(lp1673
g57
(g58
g59
NtRp1674
(dp1675
g62
(dp1676
g70
I4
ssg71
g1670
sg64
(lp1677
S"set(['/Users/cyan/Package/GitHub/funback/web2py/applications/welcome/', '/Users/cyan/Package/GitHub/funback/web2py/applications/admin/', '/Users/cyan/Package/GitHub/funback/web2py/applications/funback/'])"
p1678
asbasbasbag57
(g73
g59
NtRp1679
(dp1680
g62
(dp1681
sg71
g1654
sg64
(lp1682
g57
(g78
g59
NtRp1683
(dp1684
g62
(dp1685
g82
g83
ssg71
g1679
sg64
(lp1686
g671
asbag57
(g78
g59
NtRp1687
(dp1688
g62
(dp1689
g89
g90
ssg71
g1679
sg64
(lp1690
S':'
asbag57
(g78
g59
NtRp1691
(dp1692
g62
(dp1693
sg71
g1679
sg64
(lp1694
g57
(g58
g59
NtRp1695
(dp1696
g62
(dp1697
g70
I4
ssg71
g1691
sg64
(lp1698
g684
asbasbasbag57
(g73
g59
NtRp1699
(dp1700
g62
(dp1701
sg71
g1654
sg64
(lp1702
g57
(g78
g59
NtRp1703
(dp1704
g62
(dp1705
g82
g83
ssg71
g1699
sg64
(lp1706
g693
asbag57
(g78
g59
NtRp1707
(dp1708
g62
(dp1709
g89
g90
ssg71
g1699
sg64
(lp1710
S':'
asbag57
(g78
g59
NtRp1711
(dp1712
g62
(dp1713
sg71
g1699
sg64
(lp1714
g57
(g58
g59
NtRp1715
(dp1716
g62
(dp1717
g70
I4
ssg71
g1711
sg64
(lp1718
g57
(g66
g59
NtRp1719
(dp1720
g62
(dp1721
g70
I3
ssg71
Nsg64
(lp1722
sbasbasbasbag57
(g73
g59
NtRp1723
(dp1724
g62
(dp1725
sg71
g1654
sg64
(lp1726
g57
(g78
g59
NtRp1727
(dp1728
g62
(dp1729
g82
g83
ssg71
g1723
sg64
(lp1730
g718
asbag57
(g78
g59
NtRp1731
(dp1732
g62
(dp1733
g89
g90
ssg71
g1723
sg64
(lp1734
S':'
asbag57
(g78
g59
NtRp1735
(dp1736
g62
(dp1737
sg71
g1723
sg64
(lp1738
g57
(g58
g59
NtRp1739
(dp1740
g62
(dp1741
g70
I4
ssg71
g1735
sg64
(lp1742
S"<Values at 0x101f8e758: {'verbose': False, 'ip': '127.0.0.1', 'shutdown_timeout': 5, 'taskbar': False, 'nocron': False, 'pid_filename': 'httpserver.pid', 'maxthreads': None, 'softcron': False, 'server_name': 'cyan-1.local', 'bpython': False, 'nogui': False, 'port': 8000, 'extcron': False, 'debuglevel': 30, 'test': None, 'folder': '/Users/cyan/Package/GitHub/funback/web2py', 'config': '', 'import_models': False, 'winservice': '', 'shell': None, 'run': '', 'log_filename': 'httpserver.log', 'args': [''], 'socket_timeout': 5, 'ssl_ca_certificate': None, 'scheduler': None, 'profiler_filename': None, 'ssl_private_key': '', 'password': '<ask>', 'request_queue_size': 5, 'ssl_certificate': '', 'cronjob': False, 'numthreads': None, 'quiet': False, 'interfaces': None, 'minthreads': None, 'timeout': 10, 'plain': False, 'nobanner': False}>"
p1743
asbasbasbag57
(g73
g59
NtRp1744
(dp1745
g62
(dp1746
sg71
g1654
sg64
(lp1747
g57
(g78
g59
NtRp1748
(dp1749
g62
(dp1750
g82
g83
ssg71
g1744
sg64
(lp1751
g740
asbag57
(g78
g59
NtRp1752
(dp1753
g62
(dp1754
g89
g90
ssg71
g1744
sg64
(lp1755
S':'
asbag57
(g78
g59
NtRp1756
(dp1757
g62
(dp1758
sg71
g1744
sg64
(lp1759
g57
(g58
g59
NtRp1760
(dp1761
g62
(dp1762
g70
I4
ssg71
g1756
sg64
(lp1763
S'set([])'
p1764
asbasbasbag57
(g73
g59
NtRp1765
(dp1766
g62
(dp1767
sg71
g1654
sg64
(lp1768
g57
(g78
g59
NtRp1769
(dp1770
g62
(dp1771
g82
g83
ssg71
g1765
sg64
(lp1772
g762
asbag57
(g78
g59
NtRp1773
(dp1774
g62
(dp1775
g89
g90
ssg71
g1765
sg64
(lp1776
S':'
asbag57
(g78
g59
NtRp1777
(dp1778
g62
(dp1779
sg71
g1765
sg64
(lp1780
g57
(g58
g59
NtRp1781
(dp1782
g62
(dp1783
g70
I4
ssg71
g1777
sg64
(lp1784
g100
asbasbasbag57
(g73
g59
NtRp1785
(dp1786
g62
(dp1787
sg71
g1654
sg64
(lp1788
g57
(g78
g59
NtRp1789
(dp1790
g62
(dp1791
g82
g83
ssg71
g1785
sg64
(lp1792
g783
asbag57
(g78
g59
NtRp1793
(dp1794
g62
(dp1795
g89
g90
ssg71
g1785
sg64
(lp1796
S':'
asbag57
(g78
g59
NtRp1797
(dp1798
g62
(dp1799
sg71
g1785
sg64
(lp1800
g57
(g58
g59
NtRp1801
(dp1802
g62
(dp1803
g70
I4
ssg71
g1797
sg64
(lp1804
g796
asbasbasbag57
(g73
g59
NtRp1805
(dp1806
g62
(dp1807
sg71
g1654
sg64
(lp1808
g57
(g78
g59
NtRp1809
(dp1810
g62
(dp1811
g82
g83
ssg71
g1805
sg64
(lp1812
g959
asbag57
(g78
g59
NtRp1813
(dp1814
g62
(dp1815
g89
g90
ssg71
g1805
sg64
(lp1816
S':'
asbag57
(g78
g59
NtRp1817
(dp1818
g62
(dp1819
sg71
g1805
sg64
(lp1820
g57
(g58
g59
NtRp1821
(dp1822
g62
(dp1823
g70
I4
ssg71
g1817
sg64
(lp1824
g100
asbasbasbag57
(g73
g59
NtRp1825
(dp1826
g62
(dp1827
sg71
g1654
sg64
(lp1828
g57
(g78
g59
NtRp1829
(dp1830
g62
(dp1831
g82
g83
ssg71
g1825
sg64
(lp1832
g980
asbag57
(g78
g59
NtRp1833
(dp1834
g62
(dp1835
g89
g90
ssg71
g1825
sg64
(lp1836
S':'
asbag57
(g78
g59
NtRp1837
(dp1838
g62
(dp1839
sg71
g1825
sg64
(lp1840
g57
(g58
g59
NtRp1841
(dp1842
g62
(dp1843
g70
I4
ssg71
g1837
sg64
(lp1844
g100
asbasbasbag57
(g73
g59
NtRp1845
(dp1846
g62
(dp1847
sg71
g1654
sg64
(lp1848
g57
(g78
g59
NtRp1849
(dp1850
g62
(dp1851
g82
g83
ssg71
g1845
sg64
(lp1852
g1218
asbag57
(g78
g59
NtRp1853
(dp1854
g62
(dp1855
g89
g90
ssg71
g1845
sg64
(lp1856
S':'
asbag57
(g78
g59
NtRp1857
(dp1858
g62
(dp1859
sg71
g1845
sg64
(lp1860
g57
(g58
g59
NtRp1861
(dp1862
g62
(dp1863
g70
I4
ssg71
g1857
sg64
(lp1864
g1231
asbasbasbag57
(g73
g59
NtRp1865
(dp1866
g62
(dp1867
sg71
g1654
sg64
(lp1868
g57
(g78
g59
NtRp1869
(dp1870
g62
(dp1871
g82
g83
ssg71
g1865
sg64
(lp1872
g1261
asbag57
(g78
g59
NtRp1873
(dp1874
g62
(dp1875
g89
g90
ssg71
g1865
sg64
(lp1876
S':'
asbag57
(g78
g59
NtRp1877
(dp1878
g62
(dp1879
sg71
g1865
sg64
(lp1880
g57
(g58
g59
NtRp1881
(dp1882
g62
(dp1883
g70
I4
ssg71
g1877
sg64
(lp1884
g57
(g66
g59
NtRp1885
(dp1886
g62
(dp1887
g70
I3
ssg71
Nsg64
(lp1888
g57
(g73
g59
NtRp1889
(dp1890
g62
(dp1891
sg71
g1885
sg64
(lp1892
g57
(g78
g59
NtRp1893
(dp1894
g62
(dp1895
sg71
g1889
sg64
(lp1896
g57
(g58
g59
NtRp1897
(dp1898
g62
(dp1899
g70
I3
ssg71
g1893
sg64
(lp1900
S'1'
asbasbasbag57
(g73
g59
NtRp1901
(dp1902
g62
(dp1903
sg71
g1885
sg64
(lp1904
g57
(g78
g59
NtRp1905
(dp1906
g62
(dp1907
sg71
g1901
sg64
(lp1908
g57
(g58
g59
NtRp1909
(dp1910
g62
(dp1911
g70
I3
ssg71
g1905
sg64
(lp1912
S'99'
p1913
asbasbasbag57
(g73
g59
NtRp1914
(dp1915
g62
(dp1916
sg71
g1885
sg64
(lp1917
g57
(g78
g59
NtRp1918
(dp1919
g62
(dp1920
sg71
g1914
sg64
(lp1921
g57
(g58
g59
NtRp1922
(dp1923
g62
(dp1924
g70
I3
ssg71
g1918
sg64
(lp1925
S'7'
asbasbasbag57
(g73
g59
NtRp1926
(dp1927
g62
(dp1928
sg71
g1885
sg64
(lp1929
g57
(g78
g59
NtRp1930
(dp1931
g62
(dp1932
sg71
g1926
sg64
(lp1933
g57
(g58
g59
NtRp1934
(dp1935
g62
(dp1936
g70
I3
ssg71
g1930
sg64
(lp1937
S'datetime.datetime(2012, 3, 4, 22, 12, 8)'
p1938
asbasbasbag57
(g73
g59
NtRp1939
(dp1940
g62
(dp1941
sg71
g1885
sg64
(lp1942
g57
(g78
g59
NtRp1943
(dp1944
g62
(dp1945
sg71
g1939
sg64
(lp1946
g57
(g58
g59
NtRp1947
(dp1948
g62
(dp1949
g70
I3
ssg71
g1943
sg64
(lp1950
g1340
asbasbasbasbasbasbasbasbasbasbasbag57
(g73
g59
NtRp1951
(dp1952
g62
(dp1953
sg71
g67
sg64
(lp1954
g57
(g78
g59
NtRp1955
(dp1956
g62
(dp1957
g82
g83
ssg71
g1951
sg64
(lp1958
S'is_https'
p1959
asbag57
(g78
g59
NtRp1960
(dp1961
g62
(dp1962
g89
g90
ssg71
g1951
sg64
(lp1963
S':'
asbag57
(g78
g59
NtRp1964
(dp1965
g62
(dp1966
sg71
g1951
sg64
(lp1967
g57
(g58
g59
NtRp1968
(dp1969
g62
(dp1970
g70
I5
ssg71
g1964
sg64
(lp1971
g100
asbasbasbag57
(g73
g59
NtRp1972
(dp1973
g62
(dp1974
sg71
g67
sg64
(lp1975
g57
(g78
g59
NtRp1976
(dp1977
g62
(dp1978
g82
g83
ssg71
g1972
sg64
(lp1979
S'is_local'
p1980
asbag57
(g78
g59
NtRp1981
(dp1982
g62
(dp1983
g89
g90
ssg71
g1972
sg64
(lp1984
S':'
asbag57
(g78
g59
NtRp1985
(dp1986
g62
(dp1987
sg71
g1972
sg64
(lp1988
g57
(g58
g59
NtRp1989
(dp1990
g62
(dp1991
g70
I5
ssg71
g1985
sg64
(lp1992
g1449
asbasbasbag57
(g73
g59
NtRp1993
(dp1994
g62
(dp1995
sg71
g67
sg64
(lp1996
g57
(g78
g59
NtRp1997
(dp1998
g62
(dp1999
g82
g83
ssg71
g1993
sg64
(lp2000
S'is_restful'
p2001
asbag57
(g78
g59
NtRp2002
(dp2003
g62
(dp2004
g89
g90
ssg71
g1993
sg64
(lp2005
S':'
asbag57
(g78
g59
NtRp2006
(dp2007
g62
(dp2008
sg71
g1993
sg64
(lp2009
g57
(g58
g59
NtRp2010
(dp2011
g62
(dp2012
g70
I5
ssg71
g2006
sg64
(lp2013
g100
asbasbasbag57
(g73
g59
NtRp2014
(dp2015
g62
(dp2016
sg71
g67
sg64
(lp2017
g57
(g78
g59
NtRp2018
(dp2019
g62
(dp2020
g82
g83
ssg71
g2014
sg64
(lp2021
S'now'
p2022
asbag57
(g78
g59
NtRp2023
(dp2024
g62
(dp2025
g89
g90
ssg71
g2014
sg64
(lp2026
S':'
asbag57
(g78
g59
NtRp2027
(dp2028
g62
(dp2029
sg71
g2014
sg64
(lp2030
g57
(g58
g59
NtRp2031
(dp2032
g62
(dp2033
g70
I5
ssg71
g2027
sg64
(lp2034
S'datetime.datetime(2012, 4, 20, 12, 56, 51, 524439)'
p2035
asbasbasbag57
(g73
g59
NtRp2036
(dp2037
g62
(dp2038
sg71
g67
sg64
(lp2039
g57
(g78
g59
NtRp2040
(dp2041
g62
(dp2042
g82
g83
ssg71
g2036
sg64
(lp2043
S'post_vars'
p2044
asbag57
(g78
g59
NtRp2045
(dp2046
g62
(dp2047
g89
g90
ssg71
g2036
sg64
(lp2048
S':'
asbag57
(g78
g59
NtRp2049
(dp2050
g62
(dp2051
sg71
g2036
sg64
(lp2052
g57
(g58
g59
NtRp2053
(dp2054
g62
(dp2055
g70
I5
ssg71
g2049
sg64
(lp2056
g57
(g66
g59
NtRp2057
(dp2058
g62
(dp2059
g70
I4
ssg71
Nsg64
(lp2060
sbasbasbasbag57
(g73
g59
NtRp2061
(dp2062
g62
(dp2063
sg71
g67
sg64
(lp2064
g57
(g78
g59
NtRp2065
(dp2066
g62
(dp2067
g82
g83
ssg71
g2061
sg64
(lp2068
S'url'
p2069
asbag57
(g78
g59
NtRp2070
(dp2071
g62
(dp2072
g89
g90
ssg71
g2061
sg64
(lp2073
S':'
asbag57
(g78
g59
NtRp2074
(dp2075
g62
(dp2076
sg71
g2061
sg64
(lp2077
g57
(g58
g59
NtRp2078
(dp2079
g62
(dp2080
g70
I5
ssg71
g2074
sg64
(lp2081
S'/funback/account/register'
p2082
asbasbasbag57
(g73
g59
NtRp2083
(dp2084
g62
(dp2085
sg71
g67
sg64
(lp2086
g57
(g78
g59
NtRp2087
(dp2088
g62
(dp2089
g82
g83
ssg71
g2083
sg64
(lp2090
S'utcnow'
p2091
asbag57
(g78
g59
NtRp2092
(dp2093
g62
(dp2094
g89
g90
ssg71
g2083
sg64
(lp2095
S':'
asbag57
(g78
g59
NtRp2096
(dp2097
g62
(dp2098
sg71
g2083
sg64
(lp2099
g57
(g58
g59
NtRp2100
(dp2101
g62
(dp2102
g70
I5
ssg71
g2096
sg64
(lp2103
S'datetime.datetime(2012, 4, 20, 16, 56, 51, 524449)'
p2104
asbasbasbag57
(g73
g59
NtRp2105
(dp2106
g62
(dp2107
sg71
g67
sg64
(lp2108
g57
(g78
g59
NtRp2109
(dp2110
g62
(dp2111
g82
g83
ssg71
g2105
sg64
(lp2112
S'uuid'
p2113
asbag57
(g78
g59
NtRp2114
(dp2115
g62
(dp2116
g89
g90
ssg71
g2105
sg64
(lp2117
S':'
asbag57
(g78
g59
NtRp2118
(dp2119
g62
(dp2120
sg71
g2105
sg64
(lp2121
g57
(g58
g59
NtRp2122
(dp2123
g62
(dp2124
g70
I5
ssg71
g2118
sg64
(lp2125
S'funback/127.0.0.1.2012-04-20.12-56-51.f5d4c8d6-db19-49df-8587-7a0695b0829a'
p2126
asbasbasbag57
(g73
g59
NtRp2127
(dp2128
g62
(dp2129
sg71
g67
sg64
(lp2130
g57
(g78
g59
NtRp2131
(dp2132
g62
(dp2133
g82
g83
ssg71
g2127
sg64
(lp2134
S'vars'
p2135
asbag57
(g78
g59
NtRp2136
(dp2137
g62
(dp2138
g89
g90
ssg71
g2127
sg64
(lp2139
S':'
asbag57
(g78
g59
NtRp2140
(dp2141
g62
(dp2142
sg71
g2127
sg64
(lp2143
g57
(g58
g59
NtRp2144
(dp2145
g62
(dp2146
g70
I5
ssg71
g2140
sg64
(lp2147
g57
(g66
g59
NtRp2148
(dp2149
g62
(dp2150
g70
I4
ssg71
Nsg64
(lp2151
sbasbasbasbag57
(g73
g59
NtRp2152
(dp2153
g62
(dp2154
sg71
g67
sg64
(lp2155
g57
(g78
g59
NtRp2156
(dp2157
g62
(dp2158
g82
g83
ssg71
g2152
sg64
(lp2159
S'wsgi'
p2160
asbag57
(g78
g59
NtRp2161
(dp2162
g62
(dp2163
g89
g90
ssg71
g2152
sg64
(lp2164
S':'
asbag57
(g78
g59
NtRp2165
(dp2166
g62
(dp2167
sg71
g2152
sg64
(lp2168
g57
(g58
g59
NtRp2169
(dp2170
g62
(dp2171
g70
I5
ssg71
g2165
sg64
(lp2172
g57
(g66
g59
NtRp2173
(dp2174
g62
(dp2175
g70
I4
ssg71
Nsg64
(lp2176
g57
(g73
g59
NtRp2177
(dp2178
g62
(dp2179
sg71
g2173
sg64
(lp2180
g57
(g78
g59
NtRp2181
(dp2182
g62
(dp2183
g82
g83
ssg71
g2177
sg64
(lp2184
S'environ'
p2185
asbag57
(g78
g59
NtRp2186
(dp2187
g62
(dp2188
g89
g90
ssg71
g2177
sg64
(lp2189
S':'
asbag57
(g78
g59
NtRp2190
(dp2191
g62
(dp2192
sg71
g2177
sg64
(lp2193
g57
(g58
g59
NtRp2194
(dp2195
g62
(dp2196
g70
I4
ssg71
g2190
sg64
(lp2197
g57
(g66
g59
NtRp2198
(dp2199
g62
(dp2200
g70
I3
ssg71
Nsg64
(lp2201
g57
(g73
g59
NtRp2202
(dp2203
g62
(dp2204
sg71
g2198
sg64
(lp2205
g57
(g78
g59
NtRp2206
(dp2207
g62
(dp2208
g82
g83
ssg71
g2202
sg64
(lp2209
S'HTTP_ACCEPT'
p2210
asbag57
(g78
g59
NtRp2211
(dp2212
g62
(dp2213
g89
g90
ssg71
g2202
sg64
(lp2214
S':'
asbag57
(g78
g59
NtRp2215
(dp2216
g62
(dp2217
sg71
g2202
sg64
(lp2218
g57
(g58
g59
NtRp2219
(dp2220
g62
(dp2221
g70
I3
ssg71
g2215
sg64
(lp2222
g818
asbasbasbag57
(g73
g59
NtRp2223
(dp2224
g62
(dp2225
sg71
g2198
sg64
(lp2226
g57
(g78
g59
NtRp2227
(dp2228
g62
(dp2229
g82
g83
ssg71
g2223
sg64
(lp2230
S'HTTP_ACCEPT_ENCODING'
p2231
asbag57
(g78
g59
NtRp2232
(dp2233
g62
(dp2234
g89
g90
ssg71
g2223
sg64
(lp2235
S':'
asbag57
(g78
g59
NtRp2236
(dp2237
g62
(dp2238
sg71
g2223
sg64
(lp2239
g57
(g58
g59
NtRp2240
(dp2241
g62
(dp2242
g70
I3
ssg71
g2236
sg64
(lp2243
g840
asbasbasbag57
(g73
g59
NtRp2244
(dp2245
g62
(dp2246
sg71
g2198
sg64
(lp2247
g57
(g78
g59
NtRp2248
(dp2249
g62
(dp2250
g82
g83
ssg71
g2244
sg64
(lp2251
S'HTTP_ACCEPT_LANGUAGE'
p2252
asbag57
(g78
g59
NtRp2253
(dp2254
g62
(dp2255
g89
g90
ssg71
g2244
sg64
(lp2256
S':'
asbag57
(g78
g59
NtRp2257
(dp2258
g62
(dp2259
sg71
g2244
sg64
(lp2260
g57
(g58
g59
NtRp2261
(dp2262
g62
(dp2263
g70
I3
ssg71
g2257
sg64
(lp2264
g862
asbasbasbag57
(g73
g59
NtRp2265
(dp2266
g62
(dp2267
sg71
g2198
sg64
(lp2268
g57
(g78
g59
NtRp2269
(dp2270
g62
(dp2271
g82
g83
ssg71
g2265
sg64
(lp2272
S'HTTP_CONNECTION'
p2273
asbag57
(g78
g59
NtRp2274
(dp2275
g62
(dp2276
g89
g90
ssg71
g2265
sg64
(lp2277
S':'
asbag57
(g78
g59
NtRp2278
(dp2279
g62
(dp2280
sg71
g2265
sg64
(lp2281
g57
(g58
g59
NtRp2282
(dp2283
g62
(dp2284
g70
I3
ssg71
g2278
sg64
(lp2285
g884
asbasbasbag57
(g73
g59
NtRp2286
(dp2287
g62
(dp2288
sg71
g2198
sg64
(lp2289
g57
(g78
g59
NtRp2290
(dp2291
g62
(dp2292
g82
g83
ssg71
g2286
sg64
(lp2293
S'HTTP_COOKIE'
p2294
asbag57
(g78
g59
NtRp2295
(dp2296
g62
(dp2297
g89
g90
ssg71
g2286
sg64
(lp2298
S':'
asbag57
(g78
g59
NtRp2299
(dp2300
g62
(dp2301
sg71
g2286
sg64
(lp2302
g57
(g58
g59
NtRp2303
(dp2304
g62
(dp2305
g70
I3
ssg71
g2299
sg64
(lp2306
g906
asbasbasbag57
(g73
g59
NtRp2307
(dp2308
g62
(dp2309
sg71
g2198
sg64
(lp2310
g57
(g78
g59
NtRp2311
(dp2312
g62
(dp2313
g82
g83
ssg71
g2307
sg64
(lp2314
S'HTTP_HOST'
p2315
asbag57
(g78
g59
NtRp2316
(dp2317
g62
(dp2318
g89
g90
ssg71
g2307
sg64
(lp2319
S':'
asbag57
(g78
g59
NtRp2320
(dp2321
g62
(dp2322
sg71
g2307
sg64
(lp2323
g57
(g58
g59
NtRp2324
(dp2325
g62
(dp2326
g70
I3
ssg71
g2320
sg64
(lp2327
g928
asbasbasbag57
(g73
g59
NtRp2328
(dp2329
g62
(dp2330
sg71
g2198
sg64
(lp2331
g57
(g78
g59
NtRp2332
(dp2333
g62
(dp2334
g82
g83
ssg71
g2328
sg64
(lp2335
S'HTTP_USER_AGENT'
p2336
asbag57
(g78
g59
NtRp2337
(dp2338
g62
(dp2339
g89
g90
ssg71
g2328
sg64
(lp2340
S':'
asbag57
(g78
g59
NtRp2341
(dp2342
g62
(dp2343
sg71
g2328
sg64
(lp2344
g57
(g58
g59
NtRp2345
(dp2346
g62
(dp2347
g70
I3
ssg71
g2341
sg64
(lp2348
g950
asbasbasbag57
(g73
g59
NtRp2349
(dp2350
g62
(dp2351
sg71
g2198
sg64
(lp2352
g57
(g78
g59
NtRp2353
(dp2354
g62
(dp2355
g82
g83
ssg71
g2349
sg64
(lp2356
S'PATH_INFO'
p2357
asbag57
(g78
g59
NtRp2358
(dp2359
g62
(dp2360
g89
g90
ssg71
g2349
sg64
(lp2361
S':'
asbag57
(g78
g59
NtRp2362
(dp2363
g62
(dp2364
sg71
g2349
sg64
(lp2365
g57
(g58
g59
NtRp2366
(dp2367
g62
(dp2368
g70
I3
ssg71
g2362
sg64
(lp2369
g1014
asbasbasbag57
(g73
g59
NtRp2370
(dp2371
g62
(dp2372
sg71
g2198
sg64
(lp2373
g57
(g78
g59
NtRp2374
(dp2375
g62
(dp2376
g82
g83
ssg71
g2370
sg64
(lp2377
S'QUERY_STRING'
p2378
asbag57
(g78
g59
NtRp2379
(dp2380
g62
(dp2381
g89
g90
ssg71
g2370
sg64
(lp2382
S':'
asbag57
(g78
g59
NtRp2383
(dp2384
g62
(dp2385
sg71
g2370
sg64
(lp2386
g57
(g58
g59
NtRp2387
(dp2388
g62
(dp2389
g70
I3
ssg71
g2383
sg64
(lp2390
S''
asbasbasbag57
(g73
g59
NtRp2391
(dp2392
g62
(dp2393
sg71
g2198
sg64
(lp2394
g57
(g78
g59
NtRp2395
(dp2396
g62
(dp2397
g82
g83
ssg71
g2391
sg64
(lp2398
S'REMOTE_ADDR'
p2399
asbag57
(g78
g59
NtRp2400
(dp2401
g62
(dp2402
g89
g90
ssg71
g2391
sg64
(lp2403
S':'
asbag57
(g78
g59
NtRp2404
(dp2405
g62
(dp2406
sg71
g2391
sg64
(lp2407
g57
(g58
g59
NtRp2408
(dp2409
g62
(dp2410
g70
I3
ssg71
g2404
sg64
(lp2411
g190
asbasbasbag57
(g73
g59
NtRp2412
(dp2413
g62
(dp2414
sg71
g2198
sg64
(lp2415
g57
(g78
g59
NtRp2416
(dp2417
g62
(dp2418
g82
g83
ssg71
g2412
sg64
(lp2419
S'REMOTE_PORT'
p2420
asbag57
(g78
g59
NtRp2421
(dp2422
g62
(dp2423
g89
g90
ssg71
g2412
sg64
(lp2424
S':'
asbag57
(g78
g59
NtRp2425
(dp2426
g62
(dp2427
sg71
g2412
sg64
(lp2428
g57
(g58
g59
NtRp2429
(dp2430
g62
(dp2431
g70
I3
ssg71
g2425
sg64
(lp2432
g1078
asbasbasbag57
(g73
g59
NtRp2433
(dp2434
g62
(dp2435
sg71
g2198
sg64
(lp2436
g57
(g78
g59
NtRp2437
(dp2438
g62
(dp2439
g82
g83
ssg71
g2433
sg64
(lp2440
S'REQUEST_METHOD'
p2441
asbag57
(g78
g59
NtRp2442
(dp2443
g62
(dp2444
g89
g90
ssg71
g2433
sg64
(lp2445
S':'
asbag57
(g78
g59
NtRp2446
(dp2447
g62
(dp2448
sg71
g2433
sg64
(lp2449
g57
(g58
g59
NtRp2450
(dp2451
g62
(dp2452
g70
I3
ssg71
g2446
sg64
(lp2453
g1100
asbasbasbag57
(g73
g59
NtRp2454
(dp2455
g62
(dp2456
sg71
g2198
sg64
(lp2457
g57
(g78
g59
NtRp2458
(dp2459
g62
(dp2460
g82
g83
ssg71
g2454
sg64
(lp2461
S'SCRIPT_NAME'
p2462
asbag57
(g78
g59
NtRp2463
(dp2464
g62
(dp2465
g89
g90
ssg71
g2454
sg64
(lp2466
S':'
asbag57
(g78
g59
NtRp2467
(dp2468
g62
(dp2469
sg71
g2454
sg64
(lp2470
g57
(g58
g59
NtRp2471
(dp2472
g62
(dp2473
g70
I3
ssg71
g2467
sg64
(lp2474
S''
asbasbasbag57
(g73
g59
NtRp2475
(dp2476
g62
(dp2477
sg71
g2198
sg64
(lp2478
g57
(g78
g59
NtRp2479
(dp2480
g62
(dp2481
g82
g83
ssg71
g2475
sg64
(lp2482
S'SERVER_NAME'
p2483
asbag57
(g78
g59
NtRp2484
(dp2485
g62
(dp2486
g89
g90
ssg71
g2475
sg64
(lp2487
S':'
asbag57
(g78
g59
NtRp2488
(dp2489
g62
(dp2490
sg71
g2475
sg64
(lp2491
g57
(g58
g59
NtRp2492
(dp2493
g62
(dp2494
g70
I3
ssg71
g2488
sg64
(lp2495
g1143
asbasbasbag57
(g73
g59
NtRp2496
(dp2497
g62
(dp2498
sg71
g2198
sg64
(lp2499
g57
(g78
g59
NtRp2500
(dp2501
g62
(dp2502
g82
g83
ssg71
g2496
sg64
(lp2503
S'SERVER_PORT'
p2504
asbag57
(g78
g59
NtRp2505
(dp2506
g62
(dp2507
g89
g90
ssg71
g2496
sg64
(lp2508
S':'
asbag57
(g78
g59
NtRp2509
(dp2510
g62
(dp2511
sg71
g2496
sg64
(lp2512
g57
(g58
g59
NtRp2513
(dp2514
g62
(dp2515
g70
I3
ssg71
g2509
sg64
(lp2516
g1165
asbasbasbag57
(g73
g59
NtRp2517
(dp2518
g62
(dp2519
sg71
g2198
sg64
(lp2520
g57
(g78
g59
NtRp2521
(dp2522
g62
(dp2523
g82
g83
ssg71
g2517
sg64
(lp2524
S'SERVER_PROTOCOL'
p2525
asbag57
(g78
g59
NtRp2526
(dp2527
g62
(dp2528
g89
g90
ssg71
g2517
sg64
(lp2529
S':'
asbag57
(g78
g59
NtRp2530
(dp2531
g62
(dp2532
sg71
g2517
sg64
(lp2533
g57
(g58
g59
NtRp2534
(dp2535
g62
(dp2536
g70
I3
ssg71
g2530
sg64
(lp2537
g1187
asbasbasbag57
(g73
g59
NtRp2538
(dp2539
g62
(dp2540
sg71
g2198
sg64
(lp2541
g57
(g78
g59
NtRp2542
(dp2543
g62
(dp2544
g82
g83
ssg71
g2538
sg64
(lp2545
S'SERVER_SOFTWARE'
p2546
asbag57
(g78
g59
NtRp2547
(dp2548
g62
(dp2549
g89
g90
ssg71
g2538
sg64
(lp2550
S':'
asbag57
(g78
g59
NtRp2551
(dp2552
g62
(dp2553
sg71
g2538
sg64
(lp2554
g57
(g58
g59
NtRp2555
(dp2556
g62
(dp2557
g70
I3
ssg71
g2551
sg64
(lp2558
g1209
asbasbasbag57
(g73
g59
NtRp2559
(dp2560
g62
(dp2561
sg71
g2198
sg64
(lp2562
g57
(g78
g59
NtRp2563
(dp2564
g62
(dp2565
g82
g83
ssg71
g2559
sg64
(lp2566
S'wsgi.errors'
p2567
asbag57
(g78
g59
NtRp2568
(dp2569
g62
(dp2570
g89
g90
ssg71
g2559
sg64
(lp2571
S':'
asbag57
(g78
g59
NtRp2572
(dp2573
g62
(dp2574
sg71
g2559
sg64
(lp2575
g57
(g58
g59
NtRp2576
(dp2577
g62
(dp2578
g70
I3
ssg71
g2572
sg64
(lp2579
S"<open file '<stderr>', mode 'w' at 0x100283270>"
p2580
asbasbasbag57
(g73
g59
NtRp2581
(dp2582
g62
(dp2583
sg71
g2198
sg64
(lp2584
g57
(g78
g59
NtRp2585
(dp2586
g62
(dp2587
g82
g83
ssg71
g2581
sg64
(lp2588
S'wsgi.file_wrapper'
p2589
asbag57
(g78
g59
NtRp2590
(dp2591
g62
(dp2592
g89
g90
ssg71
g2581
sg64
(lp2593
S':'
asbag57
(g78
g59
NtRp2594
(dp2595
g62
(dp2596
sg71
g2581
sg64
(lp2597
g57
(g58
g59
NtRp2598
(dp2599
g62
(dp2600
g70
I3
ssg71
g2594
sg64
(lp2601
S'<class wsgiref.util.FileWrapper at 0x101b632c0>'
p2602
asbasbasbag57
(g73
g59
NtRp2603
(dp2604
g62
(dp2605
sg71
g2198
sg64
(lp2606
g57
(g78
g59
NtRp2607
(dp2608
g62
(dp2609
g82
g83
ssg71
g2603
sg64
(lp2610
S'wsgi.input'
p2611
asbag57
(g78
g59
NtRp2612
(dp2613
g62
(dp2614
g89
g90
ssg71
g2603
sg64
(lp2615
S':'
asbag57
(g78
g59
NtRp2616
(dp2617
g62
(dp2618
sg71
g2603
sg64
(lp2619
g57
(g58
g59
NtRp2620
(dp2621
g62
(dp2622
g70
I3
ssg71
g2616
sg64
(lp2623
S'<cStringIO.StringO object at 0x11b737960>'
p2624
asbasbasbag57
(g73
g59
NtRp2625
(dp2626
g62
(dp2627
sg71
g2198
sg64
(lp2628
g57
(g78
g59
NtRp2629
(dp2630
g62
(dp2631
g82
g83
ssg71
g2625
sg64
(lp2632
S'wsgi.multiprocess'
p2633
asbag57
(g78
g59
NtRp2634
(dp2635
g62
(dp2636
g89
g90
ssg71
g2625
sg64
(lp2637
S':'
asbag57
(g78
g59
NtRp2638
(dp2639
g62
(dp2640
sg71
g2625
sg64
(lp2641
g57
(g58
g59
NtRp2642
(dp2643
g62
(dp2644
g70
I3
ssg71
g2638
sg64
(lp2645
g100
asbasbasbag57
(g73
g59
NtRp2646
(dp2647
g62
(dp2648
sg71
g2198
sg64
(lp2649
g57
(g78
g59
NtRp2650
(dp2651
g62
(dp2652
g82
g83
ssg71
g2646
sg64
(lp2653
S'wsgi.multithread'
p2654
asbag57
(g78
g59
NtRp2655
(dp2656
g62
(dp2657
g89
g90
ssg71
g2646
sg64
(lp2658
S':'
asbag57
(g78
g59
NtRp2659
(dp2660
g62
(dp2661
sg71
g2646
sg64
(lp2662
g57
(g58
g59
NtRp2663
(dp2664
g62
(dp2665
g70
I3
ssg71
g2659
sg64
(lp2666
g1449
asbasbasbag57
(g73
g59
NtRp2667
(dp2668
g62
(dp2669
sg71
g2198
sg64
(lp2670
g57
(g78
g59
NtRp2671
(dp2672
g62
(dp2673
g82
g83
ssg71
g2667
sg64
(lp2674
S'wsgi.run_once'
p2675
asbag57
(g78
g59
NtRp2676
(dp2677
g62
(dp2678
g89
g90
ssg71
g2667
sg64
(lp2679
S':'
asbag57
(g78
g59
NtRp2680
(dp2681
g62
(dp2682
sg71
g2667
sg64
(lp2683
g57
(g58
g59
NtRp2684
(dp2685
g62
(dp2686
g70
I3
ssg71
g2680
sg64
(lp2687
g100
asbasbasbag57
(g73
g59
NtRp2688
(dp2689
g62
(dp2690
sg71
g2198
sg64
(lp2691
g57
(g78
g59
NtRp2692
(dp2693
g62
(dp2694
g82
g83
ssg71
g2688
sg64
(lp2695
S'wsgi.url_scheme'
p2696
asbag57
(g78
g59
NtRp2697
(dp2698
g62
(dp2699
g89
g90
ssg71
g2688
sg64
(lp2700
S':'
asbag57
(g78
g59
NtRp2701
(dp2702
g62
(dp2703
sg71
g2688
sg64
(lp2704
g57
(g58
g59
NtRp2705
(dp2706
g62
(dp2707
g70
I3
ssg71
g2701
sg64
(lp2708
g1492
asbasbasbag57
(g73
g59
NtRp2709
(dp2710
g62
(dp2711
sg71
g2198
sg64
(lp2712
g57
(g78
g59
NtRp2713
(dp2714
g62
(dp2715
g82
g83
ssg71
g2709
sg64
(lp2716
S'wsgi.version'
p2717
asbag57
(g78
g59
NtRp2718
(dp2719
g62
(dp2720
g89
g90
ssg71
g2709
sg64
(lp2721
S':'
asbag57
(g78
g59
NtRp2722
(dp2723
g62
(dp2724
sg71
g2709
sg64
(lp2725
g57
(g58
g59
NtRp2726
(dp2727
g62
(dp2728
g70
I3
ssg71
g2722
sg64
(lp2729
S'1'
asbasbasbasbasbasbasbasbasbasbasbasbasbsS'frames'
p2730
(lp2731
(dp2732
S'file'
p2733
S'/Users/cyan/Package/GitHub/funback/web2py/gluon/restricted.py'
p2734
sS'dump'
p2735
(dp2736
S'environment'
p2737
S"{'A': <class 'gluon.html.A'>, 'Auth': <class 'gluon.tools.Auth'>, 'B': <class 'gluon.html.B'>, 'BEAUTIFY': <class 'gluon.html.BEAUTIFY'>, 'BODY': <class 'gluon.html.BODY'>, 'BR': <class 'gluon.html.BR'>, 'BUTTON': <class 'gluon.html.BUTTON'>, 'CAT': <class 'gluon.html.CAT'>, 'CENTER': <class 'gluon.html.CENTER'>, 'CLEANUP': <class 'gluon.validators.CLEANUP'>, ...}"
p2738
sS'ccode'
p2739
S'<code object <module> at 0x1181091b0, file "/Use...cations/funback/controllers/account.py", line 20>'
p2740
ssS'lnum'
p2741
I205
sS'lines'
p2742
(dp2743
I200
S'    try:'
p2744
sI201
S'        if type(code) == types.CodeType:'
p2745
sI202
S'            ccode = code'
p2746
sI203
S'        else:'
p2747
sI204
S'            ccode = compile2(code,layer)'
p2748
sI205
S'        exec ccode in environment'
p2749
sI206
S'    except HTTP:'
p2750
sI207
S'        raise'
p2751
sI208
S'    except RestrictedError:'
p2752
sI209
S'        # do not encapsulate (obfuscate) the original RestrictedError'
p2753
ssS'call'
p2754
S"(code='##########################\\n### Account Controlle...dict()\\nresponse._vars=response._caller(register)\\n', environment={'A': <class 'gluon.html.A'>, 'Auth': <class 'gluon.tools.Auth'>, 'B': <class 'gluon.html.B'>, 'BEAUTIFY': <class 'gluon.html.BEAUTIFY'>, 'BODY': <class 'gluon.html.BODY'>, 'BR': <class 'gluon.html.BR'>, 'BUTTON': <class 'gluon.html.BUTTON'>, 'CAT': <class 'gluon.html.CAT'>, 'CENTER': <class 'gluon.html.CENTER'>, 'CLEANUP': <class 'gluon.validators.CLEANUP'>, ...}, layer='/Users/cyan/Package/GitHub/funback/web2py/applications/funback/controllers/account.py')"
p2755
sS'func'
p2756
S'restricted'
p2757
sa(dp2758
g2733
S'/Users/cyan/Package/GitHub/funback/web2py/applications/funback/controllers/account.py'
p2759
sg2735
(dp2760
sg2741
I103
sg2742
(dp2761
I96
S''
sI97
S'    if session.from_register and not session.email:'
p2762
sI98
S"        redirect(URL('register'))"
p2763
sI99
S'    else:'
p2764
sI100
S"        redirect(URL(c='default', f='index'))"
p2765
sI101
S''
sI102
S'    return dict()'
p2766
sI93
S'def registered():'
p2767
sI94
S''
sI95
S"    logger.debug('from_register: %s and session.email: %s' % (session.from_register, session.email))"
p2768
ssg2754
S'()'
p2769
sg2756
S'<module>'
p2770
sa(dp2771
g2733
S'/Users/cyan/Package/GitHub/funback/web2py/gluon/globals.py'
p2772
sg2735
(dp2773
S'self'
p2774
S'undefined'
p2775
sS'f'
S'<function register>'
p2776
ssg2741
I173
sg2742
(dp2777
I168
S'        self.menu = []             # used by the default view layout'
p2778
sI169
S'        self.files = []            # used by web2py_ajax.html'
p2779
sI170
S'        self.generic_patterns = [] # patterns to allow generic views'
p2780
sI171
S"        self.delimiters = ('{{','}}')"
p2781
sI172
S'        self._vars = None'
p2782
sI173
S'        self._caller = lambda f: f()'
p2783
sI174
S'        self._view_environment = None'
p2784
sI175
S'        self._custom_commit = None'
p2785
sI176
S'        self._custom_rollback = None'
p2786
sI177
S''
ssg2754
S'(f=<function register>)'
p2787
sg2756
S'<lambda>'
p2788
sa(dp2789
g2733
S'/Users/cyan/Package/GitHub/funback/web2py/applications/funback/controllers/account.py'
p2790
sg2735
(dp2791
S'form.email'
p2792
g2775
sS'global session'
p2793
S"<Storage {'_Session__hash': '\\x9eS\\xb9\\x90\\x93#\\...-4ba8-8d1e-e9e090a2d0a1', 'from_register': True}>"
p2794
sS'session.email'
p2795
S'None'
p2796
sS'form'
p2797
S'<gluon.sqlhtml.SQLFORM object>'
p2798
ssg2741
I28
sg2742
(dp2799
I32
S'def verify_email():'
p2800
sI23
S'    http://..../[app]/account/register'
p2801
sI24
S'    """'
p2802
sI25
S''
sI26
S'    session.from_register = True'
p2803
sI27
S'    form = auth.register()'
p2804
sI28
S'    session.email = form.email'
p2805
sI29
S''
sI30
S'    return dict(form=form)'
p2806
sI31
S''
ssg2754
S'()'
p2807
sg2756
S'register'
p2808
sasS'pyver'
p2809
S'Python 2.7.2: /Library/Frameworks/Python.framework/Versions/2.7/Resources/Python.app/Contents/MacOS/Python'
p2810
sS'session'
p2811
g57
(g58
g59
NtRp2812
(dp2813
g62
(dp2814
sg64
(lp2815
g57
(g66
g59
NtRp2816
(dp2817
g62
(dp2818
g70
I5
ssg71
Nsg64
(lp2819
g57
(g73
g59
NtRp2820
(dp2821
g62
(dp2822
sg71
g2816
sg64
(lp2823
g57
(g78
g59
NtRp2824
(dp2825
g62
(dp2826
g82
g83
ssg71
g2820
sg64
(lp2827
S'from_register'
p2828
asbag57
(g78
g59
NtRp2829
(dp2830
g62
(dp2831
g89
g90
ssg71
g2820
sg64
(lp2832
S':'
asbag57
(g78
g59
NtRp2833
(dp2834
g62
(dp2835
sg71
g2820
sg64
(lp2836
g57
(g58
g59
NtRp2837
(dp2838
g62
(dp2839
g70
I5
ssg71
g2833
sg64
(lp2840
g1449
asbasbasbasbasbsS'etype'
p2841
S"<type 'exceptions.AttributeError'>"
p2842
sS'date'
p2843
S'Fri Apr 20 12:56:51 2012'
p2844
sS'response'
p2845
g57
(g58
g59
NtRp2846
(dp2847
g62
(dp2848
sg64
(lp2849
g57
(g66
g59
NtRp2850
(dp2851
g62
(dp2852
g70
I5
ssg71
Nsg64
(lp2853
g57
(g73
g59
NtRp2854
(dp2855
g62
(dp2856
sg71
g2850
sg64
(lp2857
g57
(g78
g59
NtRp2858
(dp2859
g62
(dp2860
g82
g83
ssg71
g2854
sg64
(lp2861
g155
asbag57
(g78
g59
NtRp2862
(dp2863
g62
(dp2864
g89
g90
ssg71
g2854
sg64
(lp2865
S':'
asbag57
(g78
g59
NtRp2866
(dp2867
g62
(dp2868
sg71
g2854
sg64
(lp2869
g57
(g58
g59
NtRp2870
(dp2871
g62
(dp2872
g70
I5
ssg71
g2866
sg64
(lp2873
S'<cStringIO.StringO object at 0x1181c9f10>'
p2874
asbasbasbag57
(g73
g59
NtRp2875
(dp2876
g62
(dp2877
sg71
g2850
sg64
(lp2878
g57
(g78
g59
NtRp2879
(dp2880
g62
(dp2881
g82
g83
ssg71
g2875
sg64
(lp2882
g221
asbag57
(g78
g59
NtRp2883
(dp2884
g62
(dp2885
g89
g90
ssg71
g2875
sg64
(lp2886
S':'
asbag57
(g78
g59
NtRp2887
(dp2888
g62
(dp2889
sg71
g2875
sg64
(lp2890
g57
(g58
g59
NtRp2891
(dp2892
g62
(dp2893
g70
I5
ssg71
g2887
sg64
(lp2894
g57
(g66
g59
NtRp2895
(dp2896
g62
(dp2897
g70
I4
ssg71
Nsg64
(lp2898
g57
(g73
g59
NtRp2899
(dp2900
g62
(dp2901
sg71
g2895
sg64
(lp2902
g57
(g78
g59
NtRp2903
(dp2904
g62
(dp2905
g82
g83
ssg71
g2899
sg64
(lp2906
S'session_id_funback'
p2907
asbag57
(g78
g59
NtRp2908
(dp2909
g62
(dp2910
g89
g90
ssg71
g2899
sg64
(lp2911
S':'
asbag57
(g78
g59
NtRp2912
(dp2913
g62
(dp2914
sg71
g2899
sg64
(lp2915
g57
(g58
g59
NtRp2916
(dp2917
g62
(dp2918
g70
I4
ssg71
g2912
sg64
(lp2919
g57
(g66
g59
NtRp2920
(dp2921
g62
(dp2922
g70
I3
ssg71
Nsg64
(lp2923
g57
(g73
g59
NtRp2924
(dp2925
g62
(dp2926
sg71
g2920
sg64
(lp2927
g57
(g78
g59
NtRp2928
(dp2929
g62
(dp2930
g82
g83
ssg71
g2924
sg64
(lp2931
g271
asbag57
(g78
g59
NtRp2932
(dp2933
g62
(dp2934
g89
g90
ssg71
g2924
sg64
(lp2935
S':'
asbag57
(g78
g59
NtRp2936
(dp2937
g62
(dp2938
sg71
g2924
sg64
(lp2939
g57
(g58
g59
NtRp2940
(dp2941
g62
(dp2942
g70
I3
ssg71
g2936
sg64
(lp2943
S''
asbasbasbag57
(g73
g59
NtRp2944
(dp2945
g62
(dp2946
sg71
g2920
sg64
(lp2947
g57
(g78
g59
NtRp2948
(dp2949
g62
(dp2950
g82
g83
ssg71
g2944
sg64
(lp2951
g292
asbag57
(g78
g59
NtRp2952
(dp2953
g62
(dp2954
g89
g90
ssg71
g2944
sg64
(lp2955
S':'
asbag57
(g78
g59
NtRp2956
(dp2957
g62
(dp2958
sg71
g2944
sg64
(lp2959
g57
(g58
g59
NtRp2960
(dp2961
g62
(dp2962
g70
I3
ssg71
g2956
sg64
(lp2963
S''
asbasbasbag57
(g73
g59
NtRp2964
(dp2965
g62
(dp2966
sg71
g2920
sg64
(lp2967
g57
(g78
g59
NtRp2968
(dp2969
g62
(dp2970
g82
g83
ssg71
g2964
sg64
(lp2971
g313
asbag57
(g78
g59
NtRp2972
(dp2973
g62
(dp2974
g89
g90
ssg71
g2964
sg64
(lp2975
S':'
asbag57
(g78
g59
NtRp2976
(dp2977
g62
(dp2978
sg71
g2964
sg64
(lp2979
g57
(g58
g59
NtRp2980
(dp2981
g62
(dp2982
g70
I3
ssg71
g2976
sg64
(lp2983
S''
asbasbasbag57
(g73
g59
NtRp2984
(dp2985
g62
(dp2986
sg71
g2920
sg64
(lp2987
g57
(g78
g59
NtRp2988
(dp2989
g62
(dp2990
g82
g83
ssg71
g2984
sg64
(lp2991
g334
asbag57
(g78
g59
NtRp2992
(dp2993
g62
(dp2994
g89
g90
ssg71
g2984
sg64
(lp2995
S':'
asbag57
(g78
g59
NtRp2996
(dp2997
g62
(dp2998
sg71
g2984
sg64
(lp2999
g57
(g58
g59
NtRp3000
(dp3001
g62
(dp3002
g70
I3
ssg71
g2996
sg64
(lp3003
S''
asbasbasbag57
(g73
g59
NtRp3004
(dp3005
g62
(dp3006
sg71
g2920
sg64
(lp3007
g57
(g78
g59
NtRp3008
(dp3009
g62
(dp3010
g82
g83
ssg71
g3004
sg64
(lp3011
g355
asbag57
(g78
g59
NtRp3012
(dp3013
g62
(dp3014
g89
g90
ssg71
g3004
sg64
(lp3015
S':'
asbag57
(g78
g59
NtRp3016
(dp3017
g62
(dp3018
sg71
g3004
sg64
(lp3019
g57
(g58
g59
NtRp3020
(dp3021
g62
(dp3022
g70
I3
ssg71
g3016
sg64
(lp3023
S''
asbasbasbag57
(g73
g59
NtRp3024
(dp3025
g62
(dp3026
sg71
g2920
sg64
(lp3027
g57
(g78
g59
NtRp3028
(dp3029
g62
(dp3030
g82
g83
ssg71
g3024
sg64
(lp3031
g376
asbag57
(g78
g59
NtRp3032
(dp3033
g62
(dp3034
g89
g90
ssg71
g3024
sg64
(lp3035
S':'
asbag57
(g78
g59
NtRp3036
(dp3037
g62
(dp3038
sg71
g3024
sg64
(lp3039
g57
(g58
g59
NtRp3040
(dp3041
g62
(dp3042
g70
I3
ssg71
g3036
sg64
(lp3043
S'/'
asbasbasbag57
(g73
g59
NtRp3044
(dp3045
g62
(dp3046
sg71
g2920
sg64
(lp3047
g57
(g78
g59
NtRp3048
(dp3049
g62
(dp3050
g82
g83
ssg71
g3044
sg64
(lp3051
g397
asbag57
(g78
g59
NtRp3052
(dp3053
g62
(dp3054
g89
g90
ssg71
g3044
sg64
(lp3055
S':'
asbag57
(g78
g59
NtRp3056
(dp3057
g62
(dp3058
sg71
g3044
sg64
(lp3059
g57
(g58
g59
NtRp3060
(dp3061
g62
(dp3062
g70
I3
ssg71
g3056
sg64
(lp3063
S''
asbasbasbag57
(g73
g59
NtRp3064
(dp3065
g62
(dp3066
sg71
g2920
sg64
(lp3067
g57
(g78
g59
NtRp3068
(dp3069
g62
(dp3070
g82
g83
ssg71
g3064
sg64
(lp3071
g418
asbag57
(g78
g59
NtRp3072
(dp3073
g62
(dp3074
g89
g90
ssg71
g3064
sg64
(lp3075
S':'
asbag57
(g78
g59
NtRp3076
(dp3077
g62
(dp3078
sg71
g3064
sg64
(lp3079
g57
(g58
g59
NtRp3080
(dp3081
g62
(dp3082
g70
I3
ssg71
g3076
sg64
(lp3083
S''
asbasbasbasbasbasbasbasbasbasbasbag57
(g73
g59
NtRp3084
(dp3085
g62
(dp3086
sg71
g2850
sg64
(lp3087
g57
(g78
g59
NtRp3088
(dp3089
g62
(dp3090
g82
g83
ssg71
g3084
sg64
(lp3091
S'delimiters'
p3092
asbag57
(g78
g59
NtRp3093
(dp3094
g62
(dp3095
g89
g90
ssg71
g3084
sg64
(lp3096
S':'
asbag57
(g78
g59
NtRp3097
(dp3098
g62
(dp3099
sg71
g3084
sg64
(lp3100
g57
(g58
g59
NtRp3101
(dp3102
g62
(dp3103
g70
I5
ssg71
g3097
sg64
(lp3104
g57
(g66
g59
NtRp3105
(dp3106
g62
(dp3107
g70
I4
ssg71
Nsg64
(lp3108
g57
(g73
g59
NtRp3109
(dp3110
g62
(dp3111
sg71
g3105
sg64
(lp3112
g57
(g78
g59
NtRp3113
(dp3114
g62
(dp3115
sg71
g3109
sg64
(lp3116
g57
(g58
g59
NtRp3117
(dp3118
g62
(dp3119
g70
I4
ssg71
g3113
sg64
(lp3120
S'{{'
p3121
asbasbasbag57
(g73
g59
NtRp3122
(dp3123
g62
(dp3124
sg71
g3105
sg64
(lp3125
g57
(g78
g59
NtRp3126
(dp3127
g62
(dp3128
sg71
g3122
sg64
(lp3129
g57
(g58
g59
NtRp3130
(dp3131
g62
(dp3132
g70
I4
ssg71
g3126
sg64
(lp3133
S'}}'
p3134
asbasbasbasbasbasbasbag57
(g73
g59
NtRp3135
(dp3136
g62
(dp3137
sg71
g2850
sg64
(lp3138
g57
(g78
g59
NtRp3139
(dp3140
g62
(dp3141
g82
g83
ssg71
g3135
sg64
(lp3142
S'files'
p3143
asbag57
(g78
g59
NtRp3144
(dp3145
g62
(dp3146
g89
g90
ssg71
g3135
sg64
(lp3147
S':'
asbag57
(g78
g59
NtRp3148
(dp3149
g62
(dp3150
sg71
g3135
sg64
(lp3151
g57
(g58
g59
NtRp3152
(dp3153
g62
(dp3154
g70
I5
ssg71
g3148
sg64
(lp3155
g57
(g66
g59
NtRp3156
(dp3157
g62
(dp3158
g70
I4
ssg71
Nsg64
(lp3159
sbasbasbasbag57
(g73
g59
NtRp3160
(dp3161
g62
(dp3162
sg71
g2850
sg64
(lp3163
g57
(g78
g59
NtRp3164
(dp3165
g62
(dp3166
g82
g83
ssg71
g3160
sg64
(lp3167
S'flash'
p3168
asbag57
(g78
g59
NtRp3169
(dp3170
g62
(dp3171
g89
g90
ssg71
g3160
sg64
(lp3172
S':'
asbag57
(g78
g59
NtRp3173
(dp3174
g62
(dp3175
sg71
g3160
sg64
(lp3176
g57
(g58
g59
NtRp3177
(dp3178
g62
(dp3179
g70
I5
ssg71
g3173
sg64
(lp3180
S''
asbasbasbag57
(g73
g59
NtRp3181
(dp3182
g62
(dp3183
sg71
g2850
sg64
(lp3184
g57
(g78
g59
NtRp3185
(dp3186
g62
(dp3187
g82
g83
ssg71
g3181
sg64
(lp3188
S'generic_patterns'
p3189
asbag57
(g78
g59
NtRp3190
(dp3191
g62
(dp3192
g89
g90
ssg71
g3181
sg64
(lp3193
S':'
asbag57
(g78
g59
NtRp3194
(dp3195
g62
(dp3196
sg71
g3181
sg64
(lp3197
g57
(g58
g59
NtRp3198
(dp3199
g62
(dp3200
g70
I5
ssg71
g3194
sg64
(lp3201
g57
(g66
g59
NtRp3202
(dp3203
g62
(dp3204
g70
I4
ssg71
Nsg64
(lp3205
sbasbasbasbag57
(g73
g59
NtRp3206
(dp3207
g62
(dp3208
sg71
g2850
sg64
(lp3209
g57
(g78
g59
NtRp3210
(dp3211
g62
(dp3212
g82
g83
ssg71
g3206
sg64
(lp3213
S'headers'
p3214
asbag57
(g78
g59
NtRp3215
(dp3216
g62
(dp3217
g89
g90
ssg71
g3206
sg64
(lp3218
S':'
asbag57
(g78
g59
NtRp3219
(dp3220
g62
(dp3221
sg71
g3206
sg64
(lp3222
g57
(g58
g59
NtRp3223
(dp3224
g62
(dp3225
g70
I5
ssg71
g3219
sg64
(lp3226
g57
(g66
g59
NtRp3227
(dp3228
g62
(dp3229
g70
I4
ssg71
Nsg64
(lp3230
g57
(g73
g59
NtRp3231
(dp3232
g62
(dp3233
sg71
g3227
sg64
(lp3234
g57
(g78
g59
NtRp3235
(dp3236
g62
(dp3237
g82
g83
ssg71
g3231
sg64
(lp3238
S'Cache-Control'
p3239
asbag57
(g78
g59
NtRp3240
(dp3241
g62
(dp3242
g89
g90
ssg71
g3231
sg64
(lp3243
S':'
asbag57
(g78
g59
NtRp3244
(dp3245
g62
(dp3246
sg71
g3231
sg64
(lp3247
g57
(g58
g59
NtRp3248
(dp3249
g62
(dp3250
g70
I4
ssg71
g3244
sg64
(lp3251
S'no-store, no-cache, must-revalidate, post-check=0, pre-check=0'
p3252
asbasbasbag57
(g73
g59
NtRp3253
(dp3254
g62
(dp3255
sg71
g3227
sg64
(lp3256
g57
(g78
g59
NtRp3257
(dp3258
g62
(dp3259
g82
g83
ssg71
g3253
sg64
(lp3260
S'Content-Type'
p3261
asbag57
(g78
g59
NtRp3262
(dp3263
g62
(dp3264
g89
g90
ssg71
g3253
sg64
(lp3265
S':'
asbag57
(g78
g59
NtRp3266
(dp3267
g62
(dp3268
sg71
g3253
sg64
(lp3269
g57
(g58
g59
NtRp3270
(dp3271
g62
(dp3272
g70
I4
ssg71
g3266
sg64
(lp3273
S'text/html; charset=utf-8'
p3274
asbasbasbag57
(g73
g59
NtRp3275
(dp3276
g62
(dp3277
sg71
g3227
sg64
(lp3278
g57
(g78
g59
NtRp3279
(dp3280
g62
(dp3281
g82
g83
ssg71
g3275
sg64
(lp3282
S'Expires'
p3283
asbag57
(g78
g59
NtRp3284
(dp3285
g62
(dp3286
g89
g90
ssg71
g3275
sg64
(lp3287
S':'
asbag57
(g78
g59
NtRp3288
(dp3289
g62
(dp3290
sg71
g3275
sg64
(lp3291
g57
(g58
g59
NtRp3292
(dp3293
g62
(dp3294
g70
I4
ssg71
g3288
sg64
(lp3295
S'Fri, 20 Apr 2012 16:56:51 GMT'
p3296
asbasbasbag57
(g73
g59
NtRp3297
(dp3298
g62
(dp3299
sg71
g3227
sg64
(lp3300
g57
(g78
g59
NtRp3301
(dp3302
g62
(dp3303
g82
g83
ssg71
g3297
sg64
(lp3304
S'Pragma'
p3305
asbag57
(g78
g59
NtRp3306
(dp3307
g62
(dp3308
g89
g90
ssg71
g3297
sg64
(lp3309
S':'
asbag57
(g78
g59
NtRp3310
(dp3311
g62
(dp3312
sg71
g3297
sg64
(lp3313
g57
(g58
g59
NtRp3314
(dp3315
g62
(dp3316
g70
I4
ssg71
g3310
sg64
(lp3317
S'no-cache'
p3318
asbasbasbag57
(g73
g59
NtRp3319
(dp3320
g62
(dp3321
sg71
g3227
sg64
(lp3322
g57
(g78
g59
NtRp3323
(dp3324
g62
(dp3325
g82
g83
ssg71
g3319
sg64
(lp3326
S'X-Powered-By'
p3327
asbag57
(g78
g59
NtRp3328
(dp3329
g62
(dp3330
g89
g90
ssg71
g3319
sg64
(lp3331
S':'
asbag57
(g78
g59
NtRp3332
(dp3333
g62
(dp3334
sg71
g3319
sg64
(lp3335
g57
(g58
g59
NtRp3336
(dp3337
g62
(dp3338
g70
I4
ssg71
g3332
sg64
(lp3339
S'web2py'
p3340
asbasbasbasbasbasbasbag57
(g73
g59
NtRp3341
(dp3342
g62
(dp3343
sg71
g2850
sg64
(lp3344
g57
(g78
g59
NtRp3345
(dp3346
g62
(dp3347
g82
g83
ssg71
g3341
sg64
(lp3348
S'menu'
p3349
asbag57
(g78
g59
NtRp3350
(dp3351
g62
(dp3352
g89
g90
ssg71
g3341
sg64
(lp3353
S':'
asbag57
(g78
g59
NtRp3354
(dp3355
g62
(dp3356
sg71
g3341
sg64
(lp3357
g57
(g58
g59
NtRp3358
(dp3359
g62
(dp3360
g70
I5
ssg71
g3354
sg64
(lp3361
g57
(g66
g59
NtRp3362
(dp3363
g62
(dp3364
g70
I4
ssg71
Nsg64
(lp3365
g57
(g73
g59
NtRp3366
(dp3367
g62
(dp3368
sg71
g3362
sg64
(lp3369
g57
(g78
g59
NtRp3370
(dp3371
g62
(dp3372
sg71
g3366
sg64
(lp3373
g57
(g58
g59
NtRp3374
(dp3375
g62
(dp3376
g70
I4
ssg71
g3370
sg64
(lp3377
g57
(g66
g59
NtRp3378
(dp3379
g62
(dp3380
g70
I3
ssg71
Nsg64
(lp3381
g57
(g73
g59
NtRp3382
(dp3383
g62
(dp3384
sg71
g3378
sg64
(lp3385
g57
(g78
g59
NtRp3386
(dp3387
g62
(dp3388
sg71
g3382
sg64
(lp3389
g57
(g58
g59
NtRp3390
(dp3391
g62
(dp3392
g70
I3
ssg71
g3386
sg64
(lp3393
cgluon.languages
lazyT_unpickle
p3394
(S't\x04\x00\x00\x00Home'
tRp3395
asbasbasbag57
(g73
g59
NtRp3396
(dp3397
g62
(dp3398
sg71
g3378
sg64
(lp3399
g57
(g78
g59
NtRp3400
(dp3401
g62
(dp3402
sg71
g3396
sg64
(lp3403
g57
(g58
g59
NtRp3404
(dp3405
g62
(dp3406
g70
I3
ssg71
g3400
sg64
(lp3407
g100
asbasbasbag57
(g73
g59
NtRp3408
(dp3409
g62
(dp3410
sg71
g3378
sg64
(lp3411
g57
(g78
g59
NtRp3412
(dp3413
g62
(dp3414
sg71
g3408
sg64
(lp3415
g57
(g58
g59
NtRp3416
(dp3417
g62
(dp3418
g70
I3
ssg71
g3412
sg64
(lp3419
S'/funback/default/index'
p3420
asbasbasbag57
(g73
g59
NtRp3421
(dp3422
g62
(dp3423
sg71
g3378
sg64
(lp3424
g57
(g78
g59
NtRp3425
(dp3426
g62
(dp3427
sg71
g3421
sg64
(lp3428
g57
(g58
g59
NtRp3429
(dp3430
g62
(dp3431
g70
I3
ssg71
g3425
sg64
(lp3432
g57
(g66
g59
NtRp3433
(dp3434
g62
(dp3435
g70
I2
ssg71
Nsg64
(lp3436
sbasbasbasbasbasbasbasbag57
(g73
g59
NtRp3437
(dp3438
g62
(dp3439
sg71
g3362
sg64
(lp3440
g57
(g78
g59
NtRp3441
(dp3442
g62
(dp3443
sg71
g3437
sg64
(lp3444
g57
(g58
g59
NtRp3445
(dp3446
g62
(dp3447
g70
I4
ssg71
g3441
sg64
(lp3448
g57
(g66
g59
NtRp3449
(dp3450
g62
(dp3451
g70
I3
ssg71
Nsg64
(lp3452
g57
(g73
g59
NtRp3453
(dp3454
g62
(dp3455
sg71
g3449
sg64
(lp3456
g57
(g78
g59
NtRp3457
(dp3458
g62
(dp3459
sg71
g3453
sg64
(lp3460
g57
(g58
g59
NtRp3461
(dp3462
g62
(dp3463
g70
I3
ssg71
g3457
sg64
(lp3464
g57
(cgluon.html
SPAN
p3465
g59
NtRp3466
(dp3467
g62
(dp3468
g82
S'color:yellow'
p3469
ssg71
Nsg64
(lp3470
g3340
asbasbasbasbag57
(g73
g59
NtRp3471
(dp3472
g62
(dp3473
sg71
g3449
sg64
(lp3474
g57
(g78
g59
NtRp3475
(dp3476
g62
(dp3477
sg71
g3471
sg64
(lp3478
g57
(g58
g59
NtRp3479
(dp3480
g62
(dp3481
g70
I3
ssg71
g3475
sg64
(lp3482
g100
asbasbasbag57
(g73
g59
NtRp3483
(dp3484
g62
(dp3485
sg71
g3449
sg64
(lp3486
g57
(g78
g59
NtRp3487
(dp3488
g62
(dp3489
sg71
g3483
sg64
(lp3490
g57
(g58
g59
NtRp3491
(dp3492
g62
(dp3493
g70
I3
ssg71
g3487
sg64
(lp3494
S'None'
p3495
asbasbasbag57
(g73
g59
NtRp3496
(dp3497
g62
(dp3498
sg71
g3449
sg64
(lp3499
g57
(g78
g59
NtRp3500
(dp3501
g62
(dp3502
sg71
g3496
sg64
(lp3503
g57
(g58
g59
NtRp3504
(dp3505
g62
(dp3506
g70
I3
ssg71
g3500
sg64
(lp3507
g57
(g66
g59
NtRp3508
(dp3509
g62
(dp3510
g70
I2
ssg71
Nsg64
(lp3511
g57
(g73
g59
NtRp3512
(dp3513
g62
(dp3514
sg71
g3508
sg64
(lp3515
g57
(g78
g59
NtRp3516
(dp3517
g62
(dp3518
sg71
g3512
sg64
(lp3519
g57
(g58
g59
NtRp3520
(dp3521
g62
(dp3522
g70
I2
ssg71
g3516
sg64
(lp3523
g57
(g66
g59
NtRp3524
(dp3525
g62
(dp3526
g70
I1
ssg71
Nsg64
(lp3527
g57
(g73
g59
NtRp3528
(dp3529
g62
(dp3530
sg71
g3524
sg64
(lp3531
g57
(g78
g59
NtRp3532
(dp3533
g62
(dp3534
sg71
g3528
sg64
(lp3535
g57
(g58
g59
NtRp3536
(dp3537
g62
(dp3538
g70
I1
ssg71
g3532
sg64
(lp3539
g3394
(S's\x08\x00\x00\x00My Sites'
tRp3540
asbasbasbag57
(g73
g59
NtRp3541
(dp3542
g62
(dp3543
sg71
g3524
sg64
(lp3544
g57
(g78
g59
NtRp3545
(dp3546
g62
(dp3547
sg71
g3541
sg64
(lp3548
g57
(g58
g59
NtRp3549
(dp3550
g62
(dp3551
g70
I1
ssg71
g3545
sg64
(lp3552
I00
asbasbasbag57
(g73
g59
NtRp3553
(dp3554
g62
(dp3555
sg71
g3524
sg64
(lp3556
g57
(g78
g59
NtRp3557
(dp3558
g62
(dp3559
sg71
g3553
sg64
(lp3560
g57
(g58
g59
NtRp3561
(dp3562
g62
(dp3563
g70
I1
ssg71
g3557
sg64
(lp3564
S'/admin/default/site'
p3565
asbasbasbasbasbasbasbag57
(g73
g59
NtRp3566
(dp3567
g62
(dp3568
sg71
g3508
sg64
(lp3569
g57
(g78
g59
NtRp3570
(dp3571
g62
(dp3572
sg71
g3566
sg64
(lp3573
g57
(g58
g59
NtRp3574
(dp3575
g62
(dp3576
g70
I2
ssg71
g3570
sg64
(lp3577
g57
(g66
g59
NtRp3578
(dp3579
g62
(dp3580
g70
I1
ssg71
Nsg64
(lp3581
g57
(g73
g59
NtRp3582
(dp3583
g62
(dp3584
sg71
g3578
sg64
(lp3585
g57
(g78
g59
NtRp3586
(dp3587
g62
(dp3588
sg71
g3582
sg64
(lp3589
g57
(g58
g59
NtRp3590
(dp3591
g62
(dp3592
g70
I1
ssg71
g3586
sg64
(lp3593
g3394
(S's\x08\x00\x00\x00This App'
tRp3594
asbasbasbag57
(g73
g59
NtRp3595
(dp3596
g62
(dp3597
sg71
g3578
sg64
(lp3598
g57
(g78
g59
NtRp3599
(dp3600
g62
(dp3601
sg71
g3595
sg64
(lp3602
g57
(g58
g59
NtRp3603
(dp3604
g62
(dp3605
g70
I1
ssg71
g3599
sg64
(lp3606
I00
asbasbasbag57
(g73
g59
NtRp3607
(dp3608
g62
(dp3609
sg71
g3578
sg64
(lp3610
g57
(g78
g59
NtRp3611
(dp3612
g62
(dp3613
sg71
g3607
sg64
(lp3614
g57
(g58
g59
NtRp3615
(dp3616
g62
(dp3617
g70
I1
ssg71
g3611
sg64
(lp3618
S'/admin/default/design/funback'
p3619
asbasbasbag57
(g73
g59
NtRp3620
(dp3621
g62
(dp3622
sg71
g3578
sg64
(lp3623
g57
(g78
g59
NtRp3624
(dp3625
g62
(dp3626
sg71
g3620
sg64
(lp3627
g57
(g58
g59
NtRp3628
(dp3629
g62
(dp3630
g70
I1
ssg71
g3624
sg64
(lp3631
(lp3632
(g3394
(S't\n\x00\x00\x00Controller'
tRp3633
I00
S'/admin/default/edit/funback/controllers/account.py'
tp3634
a(g3394
(S't\x04\x00\x00\x00View'
tRp3635
I00
S'/admin/default/edit/funback/views/account/register.html'
tp3636
a(g3394
(S't\x06\x00\x00\x00Layout'
tRp3637
I00
S'/admin/default/edit/funback/views/layout.html'
tp3638
a(g3394
(S't\n\x00\x00\x00Stylesheet'
tRp3639
I00
S'/admin/default/edit/funback/static/css/web2py.css'
tp3640
a(g3394
(S's\x08\x00\x00\x00DB Model'
tRp3641
I00
S'/admin/default/edit/funback/models/db.py'
tp3642
a(g3394
(S's\n\x00\x00\x00Menu Model'
tRp3643
I00
S'/admin/default/edit/funback/models/menu.py'
tp3644
a(g3394
(S't\x08\x00\x00\x00Database'
tRp3645
I00
S'/funback/appadmin/index'
tp3646
a(g3394
(S't\x06\x00\x00\x00Errors'
tRp3647
I00
S'/admin/default/errors/funback'
tp3648
a(g3394
(S't\x05\x00\x00\x00About'
tRp3649
I00
S'/admin/default/about/funback'
tp3650
aasbasbasbasbasbasbasbag57
(g73
g59
NtRp3651
(dp3652
g62
(dp3653
sg71
g3508
sg64
(lp3654
g57
(g78
g59
NtRp3655
(dp3656
g62
(dp3657
sg71
g3651
sg64
(lp3658
g57
(g58
g59
NtRp3659
(dp3660
g62
(dp3661
g70
I2
ssg71
g3655
sg64
(lp3662
g57
(g66
g59
NtRp3663
(dp3664
g62
(dp3665
g70
I1
ssg71
Nsg64
(lp3666
g57
(g73
g59
NtRp3667
(dp3668
g62
(dp3669
sg71
g3663
sg64
(lp3670
g57
(g78
g59
NtRp3671
(dp3672
g62
(dp3673
sg71
g3667
sg64
(lp3674
g57
(g58
g59
NtRp3675
(dp3676
g62
(dp3677
g70
I1
ssg71
g3671
sg64
(lp3678
S'web2py.com'
p3679
asbasbasbag57
(g73
g59
NtRp3680
(dp3681
g62
(dp3682
sg71
g3663
sg64
(lp3683
g57
(g78
g59
NtRp3684
(dp3685
g62
(dp3686
sg71
g3680
sg64
(lp3687
g57
(g58
g59
NtRp3688
(dp3689
g62
(dp3690
g70
I1
ssg71
g3684
sg64
(lp3691
I00
asbasbasbag57
(g73
g59
NtRp3692
(dp3693
g62
(dp3694
sg71
g3663
sg64
(lp3695
g57
(g78
g59
NtRp3696
(dp3697
g62
(dp3698
sg71
g3692
sg64
(lp3699
g57
(g58
g59
NtRp3700
(dp3701
g62
(dp3702
g70
I1
ssg71
g3696
sg64
(lp3703
S'http://www.web2py.com'
p3704
asbasbasbag57
(g73
g59
NtRp3705
(dp3706
g62
(dp3707
sg71
g3663
sg64
(lp3708
g57
(g78
g59
NtRp3709
(dp3710
g62
(dp3711
sg71
g3705
sg64
(lp3712
g57
(g58
g59
NtRp3713
(dp3714
g62
(dp3715
g70
I1
ssg71
g3709
sg64
(lp3716
(lp3717
(g3394
(S't\x08\x00\x00\x00Download'
tRp3718
I00
S'http://www.web2py.com/examples/default/download'
p3719
tp3720
a(g3394
(S't\x07\x00\x00\x00Support'
tRp3721
I00
S'http://www.web2py.com/examples/default/support'
p3722
tp3723
a(g3394
(S't\x04\x00\x00\x00Demo'
tRp3724
I00
S'http://web2py.com/demo_admin'
p3725
tp3726
a(g3394
(S's\x0e\x00\x00\x00Quick Examples'
tRp3727
I00
S'http://web2py.com/examples/default/examples'
p3728
tp3729
a(g3394
(S't\x03\x00\x00\x00FAQ'
tRp3730
I00
S'http://web2py.com/AlterEgo'
p3731
tp3732
a(g3394
(S't\x06\x00\x00\x00Videos'
tRp3733
I00
S'http://www.web2py.com/examples/default/videos/'
p3734
tp3735
a(g3394
(S's\x11\x00\x00\x00Free Applications'
tRp3736
I00
S'http://web2py.com/appliances'
p3737
tp3738
a(g3394
(S't\x07\x00\x00\x00Plugins'
tRp3739
I00
S'http://web2py.com/plugins'
p3740
tp3741
a(g3394
(S't\x07\x00\x00\x00Layouts'
tRp3742
I00
S'http://web2py.com/layouts'
p3743
tp3744
a(g3394
(S't\x07\x00\x00\x00Recipes'
tRp3745
I00
S'http://web2pyslices.com/'
p3746
tp3747
a(g3394
(S't\x08\x00\x00\x00Semantic'
tRp3748
I00
S'http://web2py.com/semantic'
p3749
tp3750
aasbasbasbasbasbasbasbag57
(g73
g59
NtRp3751
(dp3752
g62
(dp3753
sg71
g3508
sg64
(lp3754
g57
(g78
g59
NtRp3755
(dp3756
g62
(dp3757
sg71
g3751
sg64
(lp3758
g57
(g58
g59
NtRp3759
(dp3760
g62
(dp3761
g70
I2
ssg71
g3755
sg64
(lp3762
g57
(g66
g59
NtRp3763
(dp3764
g62
(dp3765
g70
I1
ssg71
Nsg64
(lp3766
g57
(g73
g59
NtRp3767
(dp3768
g62
(dp3769
sg71
g3763
sg64
(lp3770
g57
(g78
g59
NtRp3771
(dp3772
g62
(dp3773
sg71
g3767
sg64
(lp3774
g57
(g58
g59
NtRp3775
(dp3776
g62
(dp3777
g70
I1
ssg71
g3771
sg64
(lp3778
g3394
(S't\r\x00\x00\x00Documentation'
tRp3779
asbasbasbag57
(g73
g59
NtRp3780
(dp3781
g62
(dp3782
sg71
g3763
sg64
(lp3783
g57
(g78
g59
NtRp3784
(dp3785
g62
(dp3786
sg71
g3780
sg64
(lp3787
g57
(g58
g59
NtRp3788
(dp3789
g62
(dp3790
g70
I1
ssg71
g3784
sg64
(lp3791
I00
asbasbasbag57
(g73
g59
NtRp3792
(dp3793
g62
(dp3794
sg71
g3763
sg64
(lp3795
g57
(g78
g59
NtRp3796
(dp3797
g62
(dp3798
sg71
g3792
sg64
(lp3799
g57
(g58
g59
NtRp3800
(dp3801
g62
(dp3802
g70
I1
ssg71
g3796
sg64
(lp3803
S'http://www.web2py.com/book'
p3804
asbasbasbag57
(g73
g59
NtRp3805
(dp3806
g62
(dp3807
sg71
g3763
sg64
(lp3808
g57
(g78
g59
NtRp3809
(dp3810
g62
(dp3811
sg71
g3805
sg64
(lp3812
g57
(g58
g59
NtRp3813
(dp3814
g62
(dp3815
g70
I1
ssg71
g3809
sg64
(lp3816
(lp3817
(g3394
(S't\x07\x00\x00\x00Preface'
tRp3818
I00
S'http://www.web2py.com/book/default/chapter/00'
p3819
tp3820
a(g3394
(S't\x0c\x00\x00\x00Introduction'
tRp3821
I00
S'http://www.web2py.com/book/default/chapter/01'
p3822
tp3823
a(g3394
(S't\x06\x00\x00\x00Python'
tRp3824
I00
S'http://www.web2py.com/book/default/chapter/02'
p3825
tp3826
a(g3394
(S't\x08\x00\x00\x00Overview'
tRp3827
I00
S'http://www.web2py.com/book/default/chapter/03'
p3828
tp3829
a(g3394
(S's\x08\x00\x00\x00The Core'
tRp3830
I00
S'http://www.web2py.com/book/default/chapter/04'
p3831
tp3832
a(g3394
(S's\t\x00\x00\x00The Views'
tRp3833
I00
S'http://www.web2py.com/book/default/chapter/05'
p3834
tp3835
a(g3394
(S't\x08\x00\x00\x00Database'
tRp3836
I00
S'http://www.web2py.com/book/default/chapter/06'
p3837
tp3838
a(g3394
(S's\x14\x00\x00\x00Forms and Validators'
tRp3839
I00
S'http://www.web2py.com/book/default/chapter/07'
p3840
tp3841
a(g3394
(S's\r\x00\x00\x00Email and SMS'
tRp3842
I00
S'http://www.web2py.com/book/default/chapter/08'
p3843
tp3844
a(g3394
(S's\x0e\x00\x00\x00Access Control'
tRp3845
I00
S'http://www.web2py.com/book/default/chapter/09'
p3846
tp3847
a(g3394
(S't\x08\x00\x00\x00Services'
tRp3848
I00
S'http://www.web2py.com/book/default/chapter/10'
p3849
tp3850
a(g3394
(S's\x0c\x00\x00\x00Ajax Recipes'
tRp3851
I00
S'http://www.web2py.com/book/default/chapter/11'
p3852
tp3853
a(g3394
(S's\x16\x00\x00\x00Components and Plugins'
tRp3854
I00
S'http://www.web2py.com/book/default/chapter/12'
p3855
tp3856
a(g3394
(S's\x12\x00\x00\x00Deployment Recipes'
tRp3857
I00
S'http://www.web2py.com/book/default/chapter/13'
p3858
tp3859
a(g3394
(S's\r\x00\x00\x00Other Recipes'
tRp3860
I00
S'http://www.web2py.com/book/default/chapter/14'
p3861
tp3862
a(g3394
(S's\r\x00\x00\x00Buy this book'
tRp3863
I00
S'http://stores.lulu.com/web2py'
p3864
tp3865
aasbasbasbasbasbasbasbag57
(g73
g59
NtRp3866
(dp3867
g62
(dp3868
sg71
g3508
sg64
(lp3869
g57
(g78
g59
NtRp3870
(dp3871
g62
(dp3872
sg71
g3866
sg64
(lp3873
g57
(g58
g59
NtRp3874
(dp3875
g62
(dp3876
g70
I2
ssg71
g3870
sg64
(lp3877
g57
(g66
g59
NtRp3878
(dp3879
g62
(dp3880
g70
I1
ssg71
Nsg64
(lp3881
g57
(g73
g59
NtRp3882
(dp3883
g62
(dp3884
sg71
g3878
sg64
(lp3885
g57
(g78
g59
NtRp3886
(dp3887
g62
(dp3888
sg71
g3882
sg64
(lp3889
g57
(g58
g59
NtRp3890
(dp3891
g62
(dp3892
g70
I1
ssg71
g3886
sg64
(lp3893
g3394
(S't\t\x00\x00\x00Community'
tRp3894
asbasbasbag57
(g73
g59
NtRp3895
(dp3896
g62
(dp3897
sg71
g3878
sg64
(lp3898
g57
(g78
g59
NtRp3899
(dp3900
g62
(dp3901
sg71
g3895
sg64
(lp3902
g57
(g58
g59
NtRp3903
(dp3904
g62
(dp3905
g70
I1
ssg71
g3899
sg64
(lp3906
I00
asbasbasbag57
(g73
g59
NtRp3907
(dp3908
g62
(dp3909
sg71
g3878
sg64
(lp3910
g57
(g78
g59
NtRp3911
(dp3912
g62
(dp3913
sg71
g3907
sg64
(lp3914
g57
(g58
g59
NtRp3915
(dp3916
g62
(dp3917
g70
I1
ssg71
g3911
sg64
(lp3918
Nasbasbasbag57
(g73
g59
NtRp3919
(dp3920
g62
(dp3921
sg71
g3878
sg64
(lp3922
g57
(g78
g59
NtRp3923
(dp3924
g62
(dp3925
sg71
g3919
sg64
(lp3926
g57
(g58
g59
NtRp3927
(dp3928
g62
(dp3929
g70
I1
ssg71
g3923
sg64
(lp3930
(lp3931
(g3394
(S't\x06\x00\x00\x00Groups'
tRp3932
I00
S'http://www.web2py.com/examples/default/usergroups'
p3933
tp3934
a(g3394
(S't\x07\x00\x00\x00Twitter'
tRp3935
I00
S'http://twitter.com/web2py'
p3936
tp3937
a(g3394
(S's\t\x00\x00\x00Live Chat'
tRp3938
I00
S'http://webchat.freenode.net/?channels=web2py'
p3939
tp3940
aasbasbasbasbasbasbasbag57
(g73
g59
NtRp3941
(dp3942
g62
(dp3943
sg71
g3508
sg64
(lp3944
g57
(g78
g59
NtRp3945
(dp3946
g62
(dp3947
sg71
g3941
sg64
(lp3948
g57
(g58
g59
NtRp3949
(dp3950
g62
(dp3951
g70
I2
ssg71
g3945
sg64
(lp3952
g57
(g66
g59
NtRp3953
(dp3954
g62
(dp3955
g70
I1
ssg71
Nsg64
(lp3956
g57
(g73
g59
NtRp3957
(dp3958
g62
(dp3959
sg71
g3953
sg64
(lp3960
g57
(g78
g59
NtRp3961
(dp3962
g62
(dp3963
sg71
g3957
sg64
(lp3964
g57
(g58
g59
NtRp3965
(dp3966
g62
(dp3967
g70
I1
ssg71
g3961
sg64
(lp3968
g3394
(S't\x07\x00\x00\x00Plugins'
tRp3969
asbasbasbag57
(g73
g59
NtRp3970
(dp3971
g62
(dp3972
sg71
g3953
sg64
(lp3973
g57
(g78
g59
NtRp3974
(dp3975
g62
(dp3976
sg71
g3970
sg64
(lp3977
g57
(g58
g59
NtRp3978
(dp3979
g62
(dp3980
g70
I1
ssg71
g3974
sg64
(lp3981
I00
asbasbasbag57
(g73
g59
NtRp3982
(dp3983
g62
(dp3984
sg71
g3953
sg64
(lp3985
g57
(g78
g59
NtRp3986
(dp3987
g62
(dp3988
sg71
g3982
sg64
(lp3989
g57
(g58
g59
NtRp3990
(dp3991
g62
(dp3992
g70
I1
ssg71
g3986
sg64
(lp3993
Nasbasbasbag57
(g73
g59
NtRp3994
(dp3995
g62
(dp3996
sg71
g3953
sg64
(lp3997
g57
(g78
g59
NtRp3998
(dp3999
g62
(dp4000
sg71
g3994
sg64
(lp4001
g57
(g58
g59
NtRp4002
(dp4003
g62
(dp4004
g70
I1
ssg71
g3998
sg64
(lp4005
(lp4006
(S'plugin_wiki'
p4007
I00
S'http://web2py.com/examples/default/download'
p4008
tp4009
a(g3394
(S's\r\x00\x00\x00Other Plugins'
tRp4010
I00
g3740
tp4011
a(g3394
(S's\x0e\x00\x00\x00Layout Plugins'
tRp4012
I00
g3743
tp4013
aasbasbasbasbasbasbasbasbasbasbasbasbasbasbasbasbasbasbasbag57
(g73
g59
NtRp4014
(dp4015
g62
(dp4016
sg71
g2850
sg64
(lp4017
g57
(g78
g59
NtRp4018
(dp4019
g62
(dp4020
g82
g83
ssg71
g4014
sg64
(lp4021
S'meta'
p4022
asbag57
(g78
g59
NtRp4023
(dp4024
g62
(dp4025
g89
g90
ssg71
g4014
sg64
(lp4026
S':'
asbag57
(g78
g59
NtRp4027
(dp4028
g62
(dp4029
sg71
g4014
sg64
(lp4030
g57
(g58
g59
NtRp4031
(dp4032
g62
(dp4033
g70
I5
ssg71
g4027
sg64
(lp4034
g57
(g66
g59
NtRp4035
(dp4036
g62
(dp4037
g70
I4
ssg71
Nsg64
(lp4038
g57
(g73
g59
NtRp4039
(dp4040
g62
(dp4041
sg71
g4035
sg64
(lp4042
g57
(g78
g59
NtRp4043
(dp4044
g62
(dp4045
g82
g83
ssg71
g4039
sg64
(lp4046
S'author'
p4047
asbag57
(g78
g59
NtRp4048
(dp4049
g62
(dp4050
g89
g90
ssg71
g4039
sg64
(lp4051
S':'
asbag57
(g78
g59
NtRp4052
(dp4053
g62
(dp4054
sg71
g4039
sg64
(lp4055
g57
(g58
g59
NtRp4056
(dp4057
g62
(dp4058
g70
I4
ssg71
g4052
sg64
(lp4059
S'Your Name <you@example.com>'
p4060
asbasbasbag57
(g73
g59
NtRp4061
(dp4062
g62
(dp4063
sg71
g4035
sg64
(lp4064
g57
(g78
g59
NtRp4065
(dp4066
g62
(dp4067
g82
g83
ssg71
g4061
sg64
(lp4068
S'copyright'
p4069
asbag57
(g78
g59
NtRp4070
(dp4071
g62
(dp4072
g89
g90
ssg71
g4061
sg64
(lp4073
S':'
asbag57
(g78
g59
NtRp4074
(dp4075
g62
(dp4076
sg71
g4061
sg64
(lp4077
g57
(g58
g59
NtRp4078
(dp4079
g62
(dp4080
g70
I4
ssg71
g4074
sg64
(lp4081
S'Copyright 2011'
p4082
asbasbasbag57
(g73
g59
NtRp4083
(dp4084
g62
(dp4085
sg71
g4035
sg64
(lp4086
g57
(g78
g59
NtRp4087
(dp4088
g62
(dp4089
g82
g83
ssg71
g4083
sg64
(lp4090
S'description'
p4091
asbag57
(g78
g59
NtRp4092
(dp4093
g62
(dp4094
g89
g90
ssg71
g4083
sg64
(lp4095
S':'
asbag57
(g78
g59
NtRp4096
(dp4097
g62
(dp4098
sg71
g4083
sg64
(lp4099
g57
(g58
g59
NtRp4100
(dp4101
g62
(dp4102
g70
I4
ssg71
g4096
sg64
(lp4103
S'a cool new app'
p4104
asbasbasbag57
(g73
g59
NtRp4105
(dp4106
g62
(dp4107
sg71
g4035
sg64
(lp4108
g57
(g78
g59
NtRp4109
(dp4110
g62
(dp4111
g82
g83
ssg71
g4105
sg64
(lp4112
S'generator'
p4113
asbag57
(g78
g59
NtRp4114
(dp4115
g62
(dp4116
g89
g90
ssg71
g4105
sg64
(lp4117
S':'
asbag57
(g78
g59
NtRp4118
(dp4119
g62
(dp4120
sg71
g4105
sg64
(lp4121
g57
(g58
g59
NtRp4122
(dp4123
g62
(dp4124
g70
I4
ssg71
g4118
sg64
(lp4125
S'Web2py Web Framework'
p4126
asbasbasbag57
(g73
g59
NtRp4127
(dp4128
g62
(dp4129
sg71
g4035
sg64
(lp4130
g57
(g78
g59
NtRp4131
(dp4132
g62
(dp4133
g82
g83
ssg71
g4127
sg64
(lp4134
S'keywords'
p4135
asbag57
(g78
g59
NtRp4136
(dp4137
g62
(dp4138
g89
g90
ssg71
g4127
sg64
(lp4139
S':'
asbag57
(g78
g59
NtRp4140
(dp4141
g62
(dp4142
sg71
g4127
sg64
(lp4143
g57
(g58
g59
NtRp4144
(dp4145
g62
(dp4146
g70
I4
ssg71
g4140
sg64
(lp4147
S'web2py, python, framework'
p4148
asbasbasbasbasbasbasbag57
(g73
g59
NtRp4149
(dp4150
g62
(dp4151
sg71
g2850
sg64
(lp4152
g57
(g78
g59
NtRp4153
(dp4154
g62
(dp4155
g82
g83
ssg71
g4149
sg64
(lp4156
S'postprocessing'
p4157
asbag57
(g78
g59
NtRp4158
(dp4159
g62
(dp4160
g89
g90
ssg71
g4149
sg64
(lp4161
S':'
asbag57
(g78
g59
NtRp4162
(dp4163
g62
(dp4164
sg71
g4149
sg64
(lp4165
g57
(g58
g59
NtRp4166
(dp4167
g62
(dp4168
g70
I5
ssg71
g4162
sg64
(lp4169
g57
(g66
g59
NtRp4170
(dp4171
g62
(dp4172
g70
I4
ssg71
Nsg64
(lp4173
sbasbasbasbag57
(g73
g59
NtRp4174
(dp4175
g62
(dp4176
sg71
g2850
sg64
(lp4177
g57
(g78
g59
NtRp4178
(dp4179
g62
(dp4180
g82
g83
ssg71
g4174
sg64
(lp4181
S'session_file'
p4182
asbag57
(g78
g59
NtRp4183
(dp4184
g62
(dp4185
g89
g90
ssg71
g4174
sg64
(lp4186
S':'
asbag57
(g78
g59
NtRp4187
(dp4188
g62
(dp4189
sg71
g4174
sg64
(lp4190
g57
(g58
g59
NtRp4191
(dp4192
g62
(dp4193
g70
I5
ssg71
g4187
sg64
(lp4194
S"<open file '/Users/cyan/Package/GitHub/funback/web2py/applications/funback/sessions/127.0.0.1-70ff08d7-20f5-43ab-a7ac-c4b9a26e19e2', mode 'rb+' at 0x11b722ed0>"
p4195
asbasbasbag57
(g73
g59
NtRp4196
(dp4197
g62
(dp4198
sg71
g2850
sg64
(lp4199
g57
(g78
g59
NtRp4200
(dp4201
g62
(dp4202
g82
g83
ssg71
g4196
sg64
(lp4203
S'session_filename'
p4204
asbag57
(g78
g59
NtRp4205
(dp4206
g62
(dp4207
g89
g90
ssg71
g4196
sg64
(lp4208
S':'
asbag57
(g78
g59
NtRp4209
(dp4210
g62
(dp4211
sg71
g4196
sg64
(lp4212
g57
(g58
g59
NtRp4213
(dp4214
g62
(dp4215
g70
I5
ssg71
g4209
sg64
(lp4216
S'/Users/cyan/Package/GitHub/funback/web2py/applications/funback/sessions/127.0.0.1-70ff08d7-20f5-43ab-a7ac-c4b9a26e19e2'
p4217
asbasbasbag57
(g73
g59
NtRp4218
(dp4219
g62
(dp4220
sg71
g2850
sg64
(lp4221
g57
(g78
g59
NtRp4222
(dp4223
g62
(dp4224
g82
g83
ssg71
g4218
sg64
(lp4225
S'session_id'
p4226
asbag57
(g78
g59
NtRp4227
(dp4228
g62
(dp4229
g89
g90
ssg71
g4218
sg64
(lp4230
S':'
asbag57
(g78
g59
NtRp4231
(dp4232
g62
(dp4233
sg71
g4218
sg64
(lp4234
g57
(g58
g59
NtRp4235
(dp4236
g62
(dp4237
g70
I5
ssg71
g4231
sg64
(lp4238
S'127.0.0.1-70ff08d7-20f5-43ab-a7ac-c4b9a26e19e2'
p4239
asbasbasbag57
(g73
g59
NtRp4240
(dp4241
g62
(dp4242
sg71
g2850
sg64
(lp4243
g57
(g78
g59
NtRp4244
(dp4245
g62
(dp4246
g82
g83
ssg71
g4240
sg64
(lp4247
S'session_id_name'
p4248
asbag57
(g78
g59
NtRp4249
(dp4250
g62
(dp4251
g89
g90
ssg71
g4240
sg64
(lp4252
S':'
asbag57
(g78
g59
NtRp4253
(dp4254
g62
(dp4255
sg71
g4240
sg64
(lp4256
g57
(g58
g59
NtRp4257
(dp4258
g62
(dp4259
g70
I5
ssg71
g4253
sg64
(lp4260
g2907
asbasbasbag57
(g73
g59
NtRp4261
(dp4262
g62
(dp4263
sg71
g2850
sg64
(lp4264
g57
(g78
g59
NtRp4265
(dp4266
g62
(dp4267
g82
g83
ssg71
g4261
sg64
(lp4268
S'session_locked'
p4269
asbag57
(g78
g59
NtRp4270
(dp4271
g62
(dp4272
g89
g90
ssg71
g4261
sg64
(lp4273
S':'
asbag57
(g78
g59
NtRp4274
(dp4275
g62
(dp4276
sg71
g4261
sg64
(lp4277
g57
(g58
g59
NtRp4278
(dp4279
g62
(dp4280
g70
I5
ssg71
g4274
sg64
(lp4281
g1449
asbasbasbag57
(g73
g59
NtRp4282
(dp4283
g62
(dp4284
sg71
g2850
sg64
(lp4285
g57
(g78
g59
NtRp4286
(dp4287
g62
(dp4288
g82
g83
ssg71
g4282
sg64
(lp4289
S'session_new'
p4290
asbag57
(g78
g59
NtRp4291
(dp4292
g62
(dp4293
g89
g90
ssg71
g4282
sg64
(lp4294
S':'
asbag57
(g78
g59
NtRp4295
(dp4296
g62
(dp4297
sg71
g4282
sg64
(lp4298
g57
(g58
g59
NtRp4299
(dp4300
g62
(dp4301
g70
I5
ssg71
g4295
sg64
(lp4302
g100
asbasbasbag57
(g73
g59
NtRp4303
(dp4304
g62
(dp4305
sg71
g2850
sg64
(lp4306
g57
(g78
g59
NtRp4307
(dp4308
g62
(dp4309
g82
g83
ssg71
g4303
sg64
(lp4310
S'status'
p4311
asbag57
(g78
g59
NtRp4312
(dp4313
g62
(dp4314
g89
g90
ssg71
g4303
sg64
(lp4315
S':'
asbag57
(g78
g59
NtRp4316
(dp4317
g62
(dp4318
sg71
g4303
sg64
(lp4319
g57
(g58
g59
NtRp4320
(dp4321
g62
(dp4322
g70
I5
ssg71
g4316
sg64
(lp4323
S'200'
p4324
asbasbasbag57
(g73
g59
NtRp4325
(dp4326
g62
(dp4327
sg71
g2850
sg64
(lp4328
g57
(g78
g59
NtRp4329
(dp4330
g62
(dp4331
g82
g83
ssg71
g4325
sg64
(lp4332
S'subtitle'
p4333
asbag57
(g78
g59
NtRp4334
(dp4335
g62
(dp4336
g89
g90
ssg71
g4325
sg64
(lp4337
S':'
asbag57
(g78
g59
NtRp4338
(dp4339
g62
(dp4340
sg71
g4325
sg64
(lp4341
g57
(g58
g59
NtRp4342
(dp4343
g62
(dp4344
g70
I5
ssg71
g4338
sg64
(lp4345
g3394
(S's\r\x00\x00\x00customize me!'
tRp4346
asbasbasbag57
(g73
g59
NtRp4347
(dp4348
g62
(dp4349
sg71
g2850
sg64
(lp4350
g57
(g78
g59
NtRp4351
(dp4352
g62
(dp4353
g82
g83
ssg71
g4347
sg64
(lp4354
S'title'
p4355
asbag57
(g78
g59
NtRp4356
(dp4357
g62
(dp4358
g89
g90
ssg71
g4347
sg64
(lp4359
S':'
asbag57
(g78
g59
NtRp4360
(dp4361
g62
(dp4362
sg71
g4347
sg64
(lp4363
g57
(g58
g59
NtRp4364
(dp4365
g62
(dp4366
g70
I5
ssg71
g4360
sg64
(lp4367
S'Funback'
p4368
asbasbasbag57
(g73
g59
NtRp4369
(dp4370
g62
(dp4371
sg71
g2850
sg64
(lp4372
g57
(g78
g59
NtRp4373
(dp4374
g62
(dp4375
g82
g83
ssg71
g4369
sg64
(lp4376
g2113
asbag57
(g78
g59
NtRp4377
(dp4378
g62
(dp4379
g89
g90
ssg71
g4369
sg64
(lp4380
S':'
asbag57
(g78
g59
NtRp4381
(dp4382
g62
(dp4383
sg71
g4369
sg64
(lp4384
g57
(g58
g59
NtRp4385
(dp4386
g62
(dp4387
g70
I5
ssg71
g4381
sg64
(lp4388
g2126
asbasbasbag57
(g73
g59
NtRp4389
(dp4390
g62
(dp4391
sg71
g2850
sg64
(lp4392
g57
(g78
g59
NtRp4393
(dp4394
g62
(dp4395
g82
g83
ssg71
g4389
sg64
(lp4396
S'view'
p4397
asbag57
(g78
g59
NtRp4398
(dp4399
g62
(dp4400
g89
g90
ssg71
g4389
sg64
(lp4401
S':'
asbag57
(g78
g59
NtRp4402
(dp4403
g62
(dp4404
sg71
g4389
sg64
(lp4405
g57
(g58
g59
NtRp4406
(dp4407
g62
(dp4408
g70
I5
ssg71
g4402
sg64
(lp4409
S'account/register.html'
p4410
asbasbasbasbasbsS'locals'
p4411
(dp4412
S'form'
p4413
S'<gluon.sqlhtml.SQLFORM object>'
p4414
sssS'traceback'
p4415
S'Traceback (most recent call last):\n  File "/Users/cyan/Package/GitHub/funback/web2py/gluon/restricted.py", line 205, in restricted\n    exec ccode in environment\n  File "/Users/cyan/Package/GitHub/funback/web2py/applications/funback/controllers/account.py", line 103, in <module>\n  File "/Users/cyan/Package/GitHub/funback/web2py/gluon/globals.py", line 173, in <lambda>\n    self._caller = lambda f: f()\n  File "/Users/cyan/Package/GitHub/funback/web2py/applications/funback/controllers/account.py", line 28, in register\n    session.email = form.email\nAttributeError: \'SQLFORM\' object has no attribute \'email\'\n'
p4416
s.