(dp1
S'group_id'
p2
(dp3
S'type'
p4
S'reference user_group'
p5
sS'sortable'
p6
I3
sS'sql'
p7
S'INTEGER REFERENCES user_group(id) ON DELETE CASCADE'
p8
ssS'user_id'
p9
(dp10
g4
S'reference user_login'
p11
sg6
I2
sg7
S'INTEGER REFERENCES user_login(id) ON DELETE CASCADE'
p12
ssS'id'
p13
(dp14
g4
g13
sg6
I1
sg7
S'SERIAL PRIMARY KEY'
p15
ss.